Certificate:
    Data:
        Version: 3 (0x2)
        Serial Number: 17335853646391593945 (0xf095530ac754cbd9)
    Signature Algorithm: sha1WithRSAEncryption
        Issuer: C=AU, ST=Some-State, O=Internet Widgits Pty Ltd, CN=test root cert
        Validity
            Not Before: Jul 27 14:26:20 2013 GMT
            Not After : Jul 26 14:26:20 2016 GMT
        Subject: C=AU, ST=Some-State, O=Internet Widgits Pty Ltd, CN=test root cert
        Subject Public Key Info:
            Public Key Algorithm: rsaEncryption
                Public-Key: (1024 bit)
                Modulus:
                    00:e2:3c:4a:44:9e:81:d3:9a:f4:f1:a8:f7:51:58:
                    b3:67:b0:58:ca:e3:d0:12:d7:0c:c4:36:cb:0d:f6:
                    f3:46:24:d2:87:31:6a:25:55:08:21:94:38:83:eb:
                    b1:b9:cf:90:81:d0:8f:77:fb:de:66:27:3a:6d:9a:
                    0d:cd:5d:36:bf:ac:81:9b:15:dd:7e:71:cc:6c:7c:
                    86:43:a7:47:24:f2:dc:6d:99:cb:0d:cb:85:11:6f:
                    8c:22:c1:63:dc:f3:65:3d:b5:35:51:5e:30:78:09:
                    80:27:7f:72:d3:ea:b6:64:d8:b7:93:91:f6:ba:a4:
                    8f:ae:69:53:94:95:b5:2f:3d
                Exponent: 65537 (0x10001)
        X509v3 extensions:
            X509v3 Subject Key Identifier: 
                B7:EA:25:4E:F3:13:05:CB:7F:6E:14:BD:13:BC:84:68:ED:35:8E:74
            X509v3 Authority Key Identifier: 
                keyid:B7:EA:25:4E:F3:13:05:CB:7F:6E:14:BD:13:BC:84:68:ED:35:8E:74

            X509v3 Basic Constraints: 
                CA:TRUE
    Signature Algorithm: sha1WithRSAEncryption
         56:1e:82:1d:9a:ac:b2:28:b0:36:a9:5a:3c:5c:bf:72:ad:f3:
         4e:d1:a8:48:c0:59:4c:cf:2e:a1:9a:f4:ce:31:7e:53:44:13:
         fb:ee:3e:bc:f4:dc:bd:9e:bf:35:3b:84:d8:3c:79:ea:04:66:
         ae:0b:d2:84:13:03:0c:f6:d0:da:9a:f8:e1:d2:b3:73:14:c6:
         71:e4:29:77:bf:24:f6:f2:57:c2:3f:30:8b:fa:e0:3f:84:29:
         63:c9:df:54:73:5f:34:15:9c:ce:e6:d4:d8:64:86:20:50:67:
         4d:d2:e1:ad:cf:65:b9:db:c4:22:e7:c9:35:53:fb:3b:e2:e4:
         32:fe
-----BEGIN CERTIFICATE-----
MIICijCCAfOgAwIBAgIJAPCVUwrHVMvZMA0GCSqGSIb3DQEBBQUAMF4xCzAJBgNV
BAYTAkFVMRMwEQYDVQQIDApTb21lLVN0YXRlMSEwHwYDVQQKDBhJbnRlcm5ldCBX
aWRnaXRzIFB0eSBMdGQxFzAVBgNVBAMMDnRlc3Qgcm9vdCBjZXJ0MB4XDTEzMDcy
NzE0MjYyMFoXDTE2MDcyNjE0MjYyMFowXjELMAkGA1UEBhMCQVUxEzARBgNVBAgM
ClNvbWUtU3RhdGUxITAfBgNVBAoMGEludGVybmV0IFdpZGdpdHMgUHR5IEx0ZDEX
MBUGA1UEAwwOdGVzdCByb290IGNlcnQwgZ8wDQYJKoZIhvcNAQEBBQADgY0AMIGJ
AoGBAOI8SkSegdOa9PGo91FYs2ewWMrj0BLXDMQ2yw3280Yk0ocxaiVVCCGUOIPr
sbnPkIHQj3f73mYnOm2aDc1dNr+sgZsV3X5xzGx8hkOnRyTy3G2Zyw3LhRFvjCLB
Y9zzZT21NVFeMHgJgCd/ctPqtmTYt5OR9rqkj65pU5SVtS89AgMBAAGjUDBOMB0G
A1UdDgQWBBS36iVO8xMFy39uFL0TvIRo7TWOdDAfBgNVHSMEGDAWgBS36iVO8xMF
y39uFL0TvIRo7TWOdDAMBgNVHRMEBTADAQH/MA0GCSqGSIb3DQEBBQUAA4GBAFYe
gh2arLIosDapWjxcv3Kt807RqEjAWUzPLqGa9M4xflNEE/vuPrz03L2evzU7hNg8
eeoEZq4L0oQTAwz20Nqa+OHSs3MUxnHkKXe/JPbyV8I/MIv64D+EKWPJ31RzXzQV
nM7m1NhkhiBQZ03S4a3PZbnbxCLnyTVT+zvi5DL+
-----END CERTIFICATE-----
