Certificate:
    Data:
        Version: 3 (0x2)
        Serial Number: 1 (0x1)
    Signature Algorithm: sha1WithRSAEncryption
        Issuer: C=AU, ST=Some-State, O=Internet Widgits Pty Ltd, CN=test root
        Validity
            Not Before: Oct  7 08:17:43 2014 GMT
            Not After : Oct  7 08:17:43 2015 GMT
        Subject: C=AU, ST=Some-State, O=Internet Widgits Pty Ltd, CN=*
        Subject Public Key Info:
            Public Key Algorithm: rsaEncryption
                Public-Key: (1024 bit)
                Modulus:
                    00:cb:be:ba:ea:6b:1c:fd:2a:21:18:48:0b:bb:b5:
                    60:fa:d4:40:bc:79:d7:0b:ab:9c:85:de:dc:5c:89:
                    af:75:ad:92:06:aa:d9:40:a4:0f:03:21:7d:34:5c:
                    90:45:76:db:7a:a3:6c:36:3f:dd:8a:b1:ae:d9:89:
                    94:c7:1e:51:98:c0:6b:43:1d:d9:a1:86:8a:06:fe:
                    c7:a4:37:a6:f5:28:e0:d2:76:e1:d3:ae:fe:81:63:
                    73:3a:55:06:09:49:0c:5f:1b:bc:91:f7:01:c2:0b:
                    27:b0:bb:aa:b9:5e:ee:2f:a6:01:8c:0c:db:81:f6:
                    f9:e7:bf:a9:0e:f8:a8:4b:cd
                Exponent: 65537 (0x10001)
        X509v3 extensions:
            X509v3 Basic Constraints: 
                CA:FALSE
            Netscape Comment: 
                OpenSSL Generated Certificate
            X509v3 Subject Key Identifier: 
                37:28:D6:FA:B2:9E:5D:EA:90:DD:4E:BC:E1:AA:62:40:25:38:92:43
            X509v3 Authority Key Identifier: 
                keyid:C9:51:33:27:BA:66:90:22:87:7F:2A:67:06:B2:FC:0F:CA:09:73:18

    Signature Algorithm: sha1WithRSAEncryption
         73:6c:97:e2:fa:df:94:58:f6:c9:b4:40:c0:09:72:13:a3:a7:
         7a:87:f6:58:92:25:ce:75:a0:61:f9:1a:89:e7:38:55:9a:30:
         4e:51:86:e1:24:80:0c:2a:fe:a1:64:16:a8:bb:0e:59:22:50:
         85:a7:b9:e8:cf:a2:82:82:10:89:19:bf:95:a4:9c:af:19:b8:
         31:13:b1:db:7c:22:65:ef:50:a5:d5:39:22:61:36:af:f5:ac:
         c5:38:98:38:4c:ab:1a:60:be:e4:c0:60:ee:d0:1f:2e:5d:ed:
         f7:6f:3b:cc:95:b0:a6:cf:c0:a0:13:8c:4b:d9:d4:32:78:cd:
         09:bb
-----BEGIN CERTIFICATE-----
MIICmzCCAgSgAwIBAgIBATANBgkqhkiG9w0BAQUFADBZMQswCQYDVQQGEwJBVTET
MBEGA1UECAwKU29tZS1TdGF0ZTEhMB8GA1UECgwYSW50ZXJuZXQgV2lkZ2l0cyBQ
dHkgTHRkMRIwEAYDVQQDDAl0ZXN0IHJvb3QwHhcNMTQxMDA3MDgxNzQzWhcNMTUx
MDA3MDgxNzQzWjBRMQswCQYDVQQGEwJBVTETMBEGA1UECAwKU29tZS1TdGF0ZTEh
MB8GA1UECgwYSW50ZXJuZXQgV2lkZ2l0cyBQdHkgTHRkMQowCAYDVQQDDAEqMIGf
MA0GCSqGSIb3DQEBAQUAA4GNADCBiQKBgQDLvrrqaxz9KiEYSAu7tWD61EC8edcL
q5yF3txcia91rZIGqtlApA8DIX00XJBFdtt6o2w2P92Ksa7ZiZTHHlGYwGtDHdmh
hooG/sekN6b1KODSduHTrv6BY3M6VQYJSQxfG7yR9wHCCyewu6q5Xu4vpgGMDNuB
9vnnv6kO+KhLzQIDAQABo3sweTAJBgNVHRMEAjAAMCwGCWCGSAGG+EIBDQQfFh1P
cGVuU1NMIEdlbmVyYXRlZCBDZXJ0aWZpY2F0ZTAdBgNVHQ4EFgQUNyjW+rKeXeqQ
3U684apiQCU4kkMwHwYDVR0jBBgwFoAUyVEzJ7pmkCKHfypnBrL8D8oJcxgwDQYJ
KoZIhvcNAQEFBQADgYEAc2yX4vrflFj2ybRAwAlyE6Oneof2WJIlznWgYfkaiec4
VZowTlGG4SSADCr+oWQWqLsOWSJQhae56M+igoIQiRm/laScrxm4MROx23wiZe9Q
pdU5ImE2r/WsxTiYOEyrGmC+5MBg7tAfLl3t9287zJWwps/AoBOMS9nUMnjNCbs=
-----END CERTIFICATE-----
