Certificate:
    Data:
        Version: 3 (0x2)
        Serial Number:
            77:43:23:01:98:f8:32:24:72:c9:71:f2:86:1e:e3:3e:59:b8:d3:33
        Signature Algorithm: sha256WithRSAEncryption
        Issuer: C=AU, ST=Some-State, O=Internet Widgits Pty Ltd, CN=test
        Validity
            Not Before: Nov  3 12:58:08 2019 GMT
            Not After : Nov  2 12:58:08 2020 GMT
        Subject: C=AU, ST=Some-State, O=Internet Widgits Pty Ltd, CN=*
        Subject Public Key Info:
            Public Key Algorithm: rsaEncryption
                RSA Public-Key: (2048 bit)
                Modulus:
                    00:c7:a5:3d:f6:73:69:02:2b:97:a6:9d:8a:31:73:
                    82:23:08:fb:df:bd:b5:e2:e3:43:7a:c3:3f:65:a1:
                    72:50:e1:34:8a:30:b4:69:a9:b1:f7:d1:67:eb:53:
                    0f:6b:01:2c:09:98:0c:55:09:1d:7d:3a:9e:86:ac:
                    f8:99:55:0c:5b:38:18:73:da:c9:19:e7:47:e3:ad:
                    57:3e:90:2c:a9:11:73:2b:b9:ee:5a:a4:f0:58:57:
                    13:83:33:f8:9d:de:c3:3b:a4:2c:be:a8:95:33:ac:
                    d2:08:b4:c6:f4:0f:39:5c:cd:4a:b4:f9:91:0b:fd:
                    3d:8c:c1:13:bc:b2:09:fc:cc:cb:43:15:51:7e:f5:
                    99:02:07:cb:89:3b:c0:0c:ae:92:5d:7e:3b:9e:18:
                    d0:48:2b:ad:94:ca:88:85:b1:d8:49:ba:cd:3f:a8:
                    69:c7:40:12:50:40:e1:a1:11:e0:62:c0:be:e8:93:
                    6e:35:08:c6:d4:b9:2e:4e:70:f1:59:76:32:7f:89:
                    ca:f1:b5:1c:54:c5:bb:09:47:5d:6a:19:9c:8f:86:
                    10:5f:ee:e3:7d:07:1d:43:56:90:8c:57:b2:94:02:
                    13:9d:34:33:e5:f6:84:c4:4c:99:d6:3e:28:d7:6b:
                    89:12:a4:8b:f9:c2:79:35:63:80:bc:b5:e1:cf:5e:
                    b2:0d
                Exponent: 65537 (0x10001)
        X509v3 extensions:
            X509v3 Basic Constraints: 
                CA:FALSE
            Netscape Comment: 
                OpenSSL Generated Certificate
            X509v3 Subject Key Identifier: 
                FE:32:16:2B:5C:D7:3D:BA:11:FD:33:65:F2:2E:D3:F6:B0:DE:C9:4B
            X509v3 Authority Key Identifier: 
                keyid:F0:EA:C4:93:7C:DA:4E:3A:D6:4F:FD:F0:0B:60:B8:B4:3C:FB:BA:2B

    Signature Algorithm: sha256WithRSAEncryption
         a2:56:19:c7:12:94:71:af:54:fe:c6:5f:07:da:84:e4:b4:92:
         02:95:1e:26:b2:9a:ae:7f:3d:d8:11:cb:ff:db:e6:f3:88:5e:
         8b:ba:ce:44:ff:77:40:1a:a8:9f:0e:bb:37:63:c2:53:8b:a4:
         29:1e:a0:07:39:7f:5e:ea:91:2e:a8:3c:f0:dc:66:c6:e7:0d:
         90:80:ec:b9:06:a4:ef:2a:0e:d6:9b:e2:dc:cf:16:24:b1:05:
         66:08:70:6d:c3:fa:87:1d:1e:7b:eb:9a:3f:03:5f:73:c4:0e:
         62:7d:a9:5e:11:d4:1b:b3:1e:72:68:a5:55:a6:4c:48:5d:f6:
         c1:4f:75:b0:4e:09:d4:a8:c4:19:bf:7d:72:a7:3c:d5:08:f7:
         ab:93:9d:e7:b4:4f:52:3f:23:3e:a3:50:18:aa:e1:22:3b:92:
         f9:b6:a2:2d:12:04:5a:49:3e:58:f7:15:c5:6f:93:ba:a1:c8:
         04:fe:67:37:49:13:cf:39:0a:91:12:b6:61:b8:ac:b4:f6:b4:
         c0:4f:f8:05:f1:39:18:f3:cd:87:f6:76:dc:7b:3c:d7:eb:4a:
         2d:a7:e5:b5:62:f5:a4:3e:d6:55:c7:38:6f:e3:12:c4:af:ad:
         c4:83:1c:45:64:a2:18:62:c3:62:c4:f4:1a:47:ed:8c:53:93:
         d9:8a:81:b3
-----BEGIN CERTIFICATE-----
MIIDrjCCApagAwIBAgIUd0MjAZj4MiRyyXHyhh7jPlm40zMwDQYJKoZIhvcNAQEL
BQAwVDELMAkGA1UEBhMCQVUxEzARBgNVBAgMClNvbWUtU3RhdGUxITAfBgNVBAoM
GEludGVybmV0IFdpZGdpdHMgUHR5IEx0ZDENMAsGA1UEAwwEdGVzdDAeFw0xOTEx
MDMxMjU4MDhaFw0yMDExMDIxMjU4MDhaMFExCzAJBgNVBAYTAkFVMRMwEQYDVQQI
DApTb21lLVN0YXRlMSEwHwYDVQQKDBhJbnRlcm5ldCBXaWRnaXRzIFB0eSBMdGQx
CjAIBgNVBAMMASowggEiMA0GCSqGSIb3DQEBAQUAA4IBDwAwggEKAoIBAQDHpT32
c2kCK5emnYoxc4IjCPvfvbXi40N6wz9loXJQ4TSKMLRpqbH30WfrUw9rASwJmAxV
CR19Op6GrPiZVQxbOBhz2skZ50fjrVc+kCypEXMrue5apPBYVxODM/id3sM7pCy+
qJUzrNIItMb0DzlczUq0+ZEL/T2MwRO8sgn8zMtDFVF+9ZkCB8uJO8AMrpJdfjue
GNBIK62UyoiFsdhJus0/qGnHQBJQQOGhEeBiwL7ok241CMbUuS5OcPFZdjJ/icrx
tRxUxbsJR11qGZyPhhBf7uN9Bx1DVpCMV7KUAhOdNDPl9oTETJnWPijXa4kSpIv5
wnk1Y4C8teHPXrINAgMBAAGjezB5MAkGA1UdEwQCMAAwLAYJYIZIAYb4QgENBB8W
HU9wZW5TU0wgR2VuZXJhdGVkIENlcnRpZmljYXRlMB0GA1UdDgQWBBT+MhYrXNc9
uhH9M2XyLtP2sN7JSzAfBgNVHSMEGDAWgBTw6sSTfNpOOtZP/fALYLi0PPu6KzAN
BgkqhkiG9w0BAQsFAAOCAQEAolYZxxKUca9U/sZfB9qE5LSSApUeJrKarn892BHL
/9vm84hei7rORP93QBqonw67N2PCU4ukKR6gBzl/XuqRLqg88NxmxucNkIDsuQak
7yoO1pvi3M8WJLEFZghwbcP6hx0ee+uaPwNfc8QOYn2pXhHUG7MecmilVaZMSF32
wU91sE4J1KjEGb99cqc81Qj3q5Od57RPUj8jPqNQGKrhIjuS+baiLRIEWkk+WPcV
xW+TuqHIBP5nN0kTzzkKkRK2YbistPa0wE/4BfE5GPPNh/Z23Hs81+tKLafltWL1
pD7WVcc4b+MSxK+txIMcRWSiGGLDYsT0GkftjFOT2YqBsw==
-----END CERTIFICATE-----
