Certificate:
    Data:
        Version: 3 (0x2)
        Serial Number:
            2a:3b:39:ec:ad:1b:1c:d7:e1:c2:4b:2c:ab:35:5c:3e:1b:5a:33:ca
        Signature Algorithm: sha256WithRSAEncryption
        Issuer: C=AU, ST=Some-State, O=Internet Widgits Pty Ltd, CN=test
        Validity
            Not Before: Jun 11 09:20:44 2020 GMT
            Not After : Jun 11 09:20:44 2021 GMT
        Subject: C=AU, ST=Some-State, O=Internet Widgits Pty Ltd, CN=*
        Subject Public Key Info:
            Public Key Algorithm: rsaEncryption
                RSA Public-Key: (2048 bit)
                Modulus:
                    00:c3:f5:9e:4c:d0:27:c9:93:02:1a:00:5c:cc:d2:
                    db:73:b9:cb:75:35:86:ee:60:17:b3:6d:2c:b1:4e:
                    c7:a3:e2:9d:5b:c2:65:9b:e0:f4:3d:65:13:68:ee:
                    87:be:58:1a:ac:2c:4a:d9:59:61:1c:a9:37:2c:3f:
                    f1:3c:dc:4e:ab:6b:6d:0e:2e:6c:b6:d8:6e:79:99:
                    b4:28:d0:e7:1a:05:f7:5d:90:2b:6f:2a:a3:88:fe:
                    0a:17:e7:e0:47:23:69:92:4d:37:96:c1:c0:db:91:
                    7c:9c:42:66:05:4f:ef:fa:a5:87:1d:51:e4:7f:16:
                    b3:d5:6d:32:f0:46:b5:e8:84:bc:2f:29:c2:2b:8e:
                    e9:b9:04:be:22:93:7f:a3:ae:d2:f1:6d:96:14:c2:
                    a8:65:7c:72:8f:1e:bf:1c:17:3a:0b:4f:97:d4:7c:
                    ed:80:2c:85:23:f6:8f:99:ed:09:5c:df:51:7d:fd:
                    9c:95:98:45:9e:9f:f2:4e:38:3e:32:c2:0e:63:d4:
                    ae:56:a8:40:af:0b:e0:72:2d:c0:00:7a:e2:5c:72:
                    0d:45:9e:10:d6:a9:76:aa:80:b7:f0:a5:c5:1d:80:
                    2c:94:38:70:c5:2c:6f:5e:68:43:9a:7c:58:73:45:
                    e8:61:43:c1:23:ab:44:f8:e3:14:a4:22:93:6b:f2:
                    c1:23
                Exponent: 65537 (0x10001)
        X509v3 extensions:
            X509v3 Basic Constraints: 
                CA:FALSE
            Netscape Comment: 
                OpenSSL Generated Certificate
            X509v3 Subject Key Identifier: 
                DA:09:C5:F5:19:AD:F1:93:60:D6:72:9D:7D:8B:25:E9:D0:21:EE:50
            X509v3 Authority Key Identifier: 
                keyid:48:61:63:44:F6:1D:B2:0C:3D:C9:9F:0E:50:A0:53:46:53:C1:B0:76

    Signature Algorithm: sha256WithRSAEncryption
         8d:81:a4:c6:fe:79:61:96:cf:48:28:63:f9:1a:bc:04:0e:92:
         e8:c2:0c:ad:f9:12:9c:ac:e7:fa:b6:fe:96:64:4f:9d:40:3e:
         82:58:4a:f4:1e:a9:e5:ae:08:13:82:ed:09:c0:ed:52:aa:29:
         49:c9:b1:9e:c6:e6:2c:6d:c2:0d:11:4b:57:05:60:ef:2b:7a:
         ea:d3:86:d4:55:12:11:e6:42:e4:ea:44:10:9a:2d:1d:e2:2b:
         1c:29:b4:45:5a:9a:a6:5d:a4:75:ec:b7:f0:eb:c3:31:2b:47:
         4b:55:6e:b9:65:4d:1f:f9:4c:37:7e:ea:4a:d4:8f:42:20:38:
         99:4c:9a:1a:39:7d:c1:68:67:9d:a9:e4:ba:d7:14:d2:00:91:
         57:f8:ec:85:e6:83:0f:f6:58:0f:25:96:ce:c9:52:15:a8:b1:
         92:5f:f3:43:eb:a2:3d:3c:15:29:80:80:12:f2:b2:fd:9b:e0:
         9a:86:3d:59:42:e2:8b:fd:e0:c7:3b:99:32:d3:08:54:b8:d0:
         39:02:6f:9e:ca:e9:52:85:8e:0a:72:09:37:11:59:76:69:aa:
         9d:99:0f:0f:a3:fe:55:80:b5:74:74:89:7d:fa:cf:35:f5:4c:
         50:6c:96:96:88:87:9a:5f:7b:b3:29:ea:0c:f0:5d:69:fd:40:
         66:61:61:57
-----BEGIN CERTIFICATE-----
MIIDrjCCApagAwIBAgIUKjs57K0bHNfhwkssqzVcPhtaM8owDQYJKoZIhvcNAQEL
BQAwVDELMAkGA1UEBhMCQVUxEzARBgNVBAgMClNvbWUtU3RhdGUxITAfBgNVBAoM
GEludGVybmV0IFdpZGdpdHMgUHR5IEx0ZDENMAsGA1UEAwwEdGVzdDAeFw0yMDA2
MTEwOTIwNDRaFw0yMTA2MTEwOTIwNDRaMFExCzAJBgNVBAYTAkFVMRMwEQYDVQQI
DApTb21lLVN0YXRlMSEwHwYDVQQKDBhJbnRlcm5ldCBXaWRnaXRzIFB0eSBMdGQx
CjAIBgNVBAMMASowggEiMA0GCSqGSIb3DQEBAQUAA4IBDwAwggEKAoIBAQDD9Z5M
0CfJkwIaAFzM0ttzuct1NYbuYBezbSyxTsej4p1bwmWb4PQ9ZRNo7oe+WBqsLErZ
WWEcqTcsP/E83E6ra20OLmy22G55mbQo0OcaBfddkCtvKqOI/goX5+BHI2mSTTeW
wcDbkXycQmYFT+/6pYcdUeR/FrPVbTLwRrXohLwvKcIrjum5BL4ik3+jrtLxbZYU
wqhlfHKPHr8cFzoLT5fUfO2ALIUj9o+Z7Qlc31F9/ZyVmEWen/JOOD4ywg5j1K5W
qECvC+ByLcAAeuJccg1FnhDWqXaqgLfwpcUdgCyUOHDFLG9eaEOafFhzRehhQ8Ej
q0T44xSkIpNr8sEjAgMBAAGjezB5MAkGA1UdEwQCMAAwLAYJYIZIAYb4QgENBB8W
HU9wZW5TU0wgR2VuZXJhdGVkIENlcnRpZmljYXRlMB0GA1UdDgQWBBTaCcX1Ga3x
k2DWcp19iyXp0CHuUDAfBgNVHSMEGDAWgBRIYWNE9h2yDD3Jnw5QoFNGU8GwdjAN
BgkqhkiG9w0BAQsFAAOCAQEAjYGkxv55YZbPSChj+Rq8BA6S6MIMrfkSnKzn+rb+
lmRPnUA+glhK9B6p5a4IE4LtCcDtUqopScmxnsbmLG3CDRFLVwVg7yt66tOG1FUS
EeZC5OpEEJotHeIrHCm0RVqapl2kdey38OvDMStHS1VuuWVNH/lMN37qStSPQiA4
mUyaGjl9wWhnnankutcU0gCRV/jsheaDD/ZYDyWWzslSFaixkl/zQ+uiPTwVKYCA
EvKy/ZvgmoY9WULii/3gxzuZMtMIVLjQOQJvnsrpUoWOCnIJNxFZdmmqnZkPD6P+
VYC1dHSJffrPNfVMUGyWloiHml97synqDPBdaf1AZmFhVw==
-----END CERTIFICATE-----
