Certificate:
    Data:
        Version: 3 (0x2)
        Serial Number:
            43:6f:28:43:34:d0:47:6c:74:fa:23:42:47:b0:af:13:73:0e:1b:13
        Signature Algorithm: sha256WithRSAEncryption
        Issuer: C=AU, ST=Some-State, O=Internet Widgits Pty Ltd, CN=test
        Validity
            Not Before: Jun 14 10:54:46 2022 GMT
            Not After : Jun 14 10:54:46 2023 GMT
        Subject: C=AU, ST=Some-State, O=Internet Widgits Pty Ltd, CN=*
        Subject Public Key Info:
            Public Key Algorithm: rsaEncryption
                Public-Key: (2048 bit)
                Modulus:
                    00:cf:e5:ad:21:34:68:44:4c:ee:da:3e:ca:91:55:
                    e9:cf:fc:c9:04:bd:ff:25:47:e4:5e:72:76:a9:3c:
                    b0:76:48:d7:7d:f9:2c:80:31:d3:bf:36:86:cd:14:
                    8f:bf:ff:10:3d:48:0f:4c:f2:5c:29:27:73:7b:c9:
                    fe:a1:2d:cd:45:16:9c:ea:ef:10:28:86:81:f0:5b:
                    db:19:a1:e0:45:ca:0e:c9:a9:dd:18:0d:1a:45:78:
                    40:17:01:5a:e7:da:fb:31:38:94:6e:25:0a:70:0a:
                    11:3d:91:e1:ea:f7:15:75:11:8b:5d:c3:51:d4:91:
                    ee:94:ab:0f:a5:a6:66:0e:10:30:bb:60:55:60:c2:
                    51:80:b7:58:b2:80:96:bf:23:36:f6:8c:0c:8b:63:
                    10:47:2f:7c:89:b2:c3:e3:4e:c2:72:74:85:ef:60:
                    8c:ac:54:58:2c:bb:17:98:61:60:ad:43:38:a3:f3:
                    22:2a:4c:a6:42:8e:c1:f9:1c:06:21:c7:24:bf:91:
                    09:bf:64:87:ee:9d:17:aa:03:41:cd:b2:eb:4e:df:
                    f5:e8:6a:c6:96:b2:d3:a5:96:ab:16:4f:04:31:46:
                    03:75:cd:4a:e9:e1:ee:e4:59:14:24:4e:dc:d7:95:
                    ef:4b:b8:03:2b:f5:d6:0f:72:8e:78:21:4b:9b:18:
                    37:c7
                Exponent: 65537 (0x10001)
        X509v3 extensions:
            X509v3 Basic Constraints: 
                CA:FALSE
            X509v3 Subject Key Identifier: 
                9C:E1:70:C1:91:FA:A9:14:E3:C9:26:C6:DE:A4:84:8D:7A:E7:4C:B1
            X509v3 Authority Key Identifier: 
                90:74:F2:7B:0D:0F:62:6C:DD:37:ED:A0:2B:AF:D7:3C:FC:EA:F3:9D
    Signature Algorithm: sha256WithRSAEncryption
    Signature Value:
        52:76:79:d7:ee:da:06:a9:1b:dd:6a:4b:66:01:e7:90:ce:14:
        70:21:b7:09:8b:83:43:7b:0a:17:53:7f:6b:f7:e7:74:71:3c:
        1b:1b:44:8f:21:c6:a4:4d:54:10:1d:13:89:a7:2e:d0:0a:91:
        03:01:9a:5b:bb:bd:61:27:a2:05:40:a0:0a:1b:02:71:dc:75:
        f7:10:3d:00:c8:f7:15:77:fc:f6:83:99:de:4c:57:8c:81:0b:
        21:5a:43:03:bf:4e:a3:9d:c7:2a:58:6c:76:9e:14:b1:81:0f:
        8b:e2:a8:85:cd:3a:52:af:c0:4e:3c:87:1d:56:2e:14:c9:c0:
        d2:ba:cd:df:e4:36:f5:41:55:b1:8e:4e:d7:f4:b7:8b:f6:62:
        cc:31:3c:44:20:a6:cd:75:f8:0e:a1:88:5c:ea:04:94:6c:e9:
        ee:f4:04:d9:49:31:78:51:90:1f:02:ee:05:73:28:e8:d0:cc:
        a2:f0:65:1e:1a:df:08:89:1f:23:57:24:1b:ff:a1:0f:b6:8b:
        d9:13:bd:6e:7a:00:c5:cf:56:2c:1a:28:e4:57:04:36:15:a2:
        bb:eb:a9:35:f6:72:04:9b:45:cb:db:36:50:a7:9c:3f:28:24:
        ce:53:29:3c:1b:fe:73:87:bb:87:ba:e3:ab:d7:46:91:cf:7e:
        32:ff:c0:a3
-----BEGIN CERTIFICATE-----
MIIDgDCCAmigAwIBAgIUQ28oQzTQR2x0+iNCR7CvE3MOGxMwDQYJKoZIhvcNAQEL
BQAwVDELMAkGA1UEBhMCQVUxEzARBgNVBAgMClNvbWUtU3RhdGUxITAfBgNVBAoM
GEludGVybmV0IFdpZGdpdHMgUHR5IEx0ZDENMAsGA1UEAwwEdGVzdDAeFw0yMjA2
MTQxMDU0NDZaFw0yMzA2MTQxMDU0NDZaMFExCzAJBgNVBAYTAkFVMRMwEQYDVQQI
DApTb21lLVN0YXRlMSEwHwYDVQQKDBhJbnRlcm5ldCBXaWRnaXRzIFB0eSBMdGQx
CjAIBgNVBAMMASowggEiMA0GCSqGSIb3DQEBAQUAA4IBDwAwggEKAoIBAQDP5a0h
NGhETO7aPsqRVenP/MkEvf8lR+RecnapPLB2SNd9+SyAMdO/NobNFI+//xA9SA9M
8lwpJ3N7yf6hLc1FFpzq7xAohoHwW9sZoeBFyg7Jqd0YDRpFeEAXAVrn2vsxOJRu
JQpwChE9keHq9xV1EYtdw1HUke6Uqw+lpmYOEDC7YFVgwlGAt1iygJa/Izb2jAyL
YxBHL3yJssPjTsJydIXvYIysVFgsuxeYYWCtQzij8yIqTKZCjsH5HAYhxyS/kQm/
ZIfunReqA0HNsutO3/XoasaWstOllqsWTwQxRgN1zUrp4e7kWRQkTtzXle9LuAMr
9dYPco54IUubGDfHAgMBAAGjTTBLMAkGA1UdEwQCMAAwHQYDVR0OBBYEFJzhcMGR
+qkU48kmxt6khI1650yxMB8GA1UdIwQYMBaAFJB08nsND2Js3TftoCuv1zz86vOd
MA0GCSqGSIb3DQEBCwUAA4IBAQBSdnnX7toGqRvdaktmAeeQzhRwIbcJi4NDewoX
U39r9+d0cTwbG0SPIcakTVQQHROJpy7QCpEDAZpbu71hJ6IFQKAKGwJx3HX3ED0A
yPcVd/z2g5neTFeMgQshWkMDv06jnccqWGx2nhSxgQ+L4qiFzTpSr8BOPIcdVi4U
ycDSus3f5Db1QVWxjk7X9LeL9mLMMTxEIKbNdfgOoYhc6gSUbOnu9ATZSTF4UZAf
Au4Fcyjo0Myi8GUeGt8IiR8jVyQb/6EPtovZE71uegDFz1YsGijkVwQ2FaK766k1
9nIEm0XL2zZQp5w/KCTOUyk8G/5zh7uHuuOr10aRz34y/8Cj
-----END CERTIFICATE-----
