Certificate:
    Data:
        Version: 3 (0x2)
        Serial Number:
            53:ec:a5:6d:e0:33:0b:3f:1b:64:64:9f:8c:a2:65:7e:c1:9b:c5:ca
        Signature Algorithm: sha256WithRSAEncryption
        Issuer: C=AU, ST=Some-State, O=Internet Widgits Pty Ltd, CN=test
        Validity
            Not Before: Jun 12 13:35:50 2021 GMT
            Not After : Jun 12 13:35:50 2022 GMT
        Subject: C=AU, ST=Some-State, O=Internet Widgits Pty Ltd, CN=*
        Subject Public Key Info:
            Public Key Algorithm: rsaEncryption
                RSA Public-Key: (2048 bit)
                Modulus:
                    00:d2:50:62:10:8e:4b:e9:fa:74:e7:53:97:ea:25:
                    b1:26:53:5a:ed:f6:a6:72:5e:9a:0f:8a:09:e2:b2:
                    dd:f9:bc:10:b1:de:9a:bd:e6:64:d9:0f:c1:b3:ed:
                    42:d8:f7:9f:52:f6:49:38:1d:5d:f9:cc:8c:7e:c8:
                    ef:8e:f7:e8:e1:7c:9c:13:e1:32:72:a7:b9:df:68:
                    1f:9d:88:82:09:4c:e0:7c:bb:9c:74:bf:9d:51:57:
                    f3:94:f8:80:d4:80:5f:ee:1c:98:a5:43:08:25:42:
                    b2:9b:1b:2a:2a:13:86:80:68:f8:ea:5d:d1:d7:50:
                    9f:35:49:f9:9c:0b:a8:17:23:b1:b9:26:6c:32:00:
                    82:3c:51:f2:bb:c6:1a:3d:5e:14:ce:1d:b4:b9:98:
                    cb:54:3a:21:f5:d1:40:75:c5:05:86:3b:ed:7e:87:
                    79:ba:74:56:46:65:48:41:d0:9e:23:7b:dd:c7:b4:
                    c0:df:36:c8:01:03:b6:96:03:27:bd:6c:8e:64:33:
                    5a:f8:dd:49:7f:c2:d1:d2:a8:c7:3f:5e:63:78:28:
                    3b:d4:c4:87:fe:13:16:96:f4:89:81:c0:fc:98:8a:
                    54:8a:14:21:7f:7b:21:fc:f5:c8:37:0e:94:6b:a2:
                    a5:53:7e:13:27:cf:6b:a5:0b:f8:f4:53:fa:5e:6d:
                    d3:25
                Exponent: 65537 (0x10001)
        X509v3 extensions:
            X509v3 Basic Constraints: 
                CA:FALSE
            Netscape Comment: 
                OpenSSL Generated Certificate
            X509v3 Subject Key Identifier: 
                2C:FE:68:9B:AD:6D:20:F5:37:62:AA:3C:FE:D8:70:94:47:75:87:1D
            X509v3 Authority Key Identifier: 
                keyid:AA:B5:9C:D4:9C:C9:0C:A7:C8:55:0C:9E:98:EE:55:03:52:00:D9:08

    Signature Algorithm: sha256WithRSAEncryption
         97:36:30:a3:b2:44:1f:d2:cc:27:64:22:85:31:9d:03:93:10:
         7b:bc:dc:05:76:49:aa:71:a1:70:11:2c:0d:63:6a:5f:0b:9e:
         3a:eb:f0:dc:d8:32:54:c5:13:3b:a0:76:b5:9b:f6:62:f7:1a:
         7b:b7:a4:2b:b4:0e:b3:f2:86:fa:22:94:ab:0f:34:2d:10:98:
         8a:62:c2:25:33:12:45:96:ae:e9:95:74:49:5b:86:5d:42:a5:
         b7:b3:ca:e2:1d:9a:a5:81:09:ff:39:ee:fa:98:81:a7:ad:85:
         69:1a:ef:d1:73:15:04:b1:82:6e:8f:5b:5b:f7:03:16:0b:47:
         df:a5:c6:78:26:c6:2a:09:09:3a:9b:8b:ee:2e:3e:14:f7:97:
         4d:af:1b:d0:8f:07:7c:e2:6b:5a:b5:d0:3b:cc:e6:8e:97:81:
         7b:eb:82:63:f5:cc:42:59:4b:47:ff:2b:ec:f8:0a:55:a5:b6:
         15:ba:1d:34:f5:59:11:dd:2a:13:72:b2:98:40:66:45:00:bf:
         b3:65:17:6b:c2:15:ca:53:0a:01:26:c3:8f:09:cf:56:78:33:
         41:cc:2a:62:cd:38:9d:16:a3:ec:cf:f5:59:bf:5f:ab:2b:2a:
         e6:12:f5:27:f5:30:9d:80:fb:20:4d:a6:f6:a5:6f:48:e9:59:
         dc:8c:3c:72
-----BEGIN CERTIFICATE-----
MIIDrjCCApagAwIBAgIUU+ylbeAzCz8bZGSfjKJlfsGbxcowDQYJKoZIhvcNAQEL
BQAwVDELMAkGA1UEBhMCQVUxEzARBgNVBAgMClNvbWUtU3RhdGUxITAfBgNVBAoM
GEludGVybmV0IFdpZGdpdHMgUHR5IEx0ZDENMAsGA1UEAwwEdGVzdDAeFw0yMTA2
MTIxMzM1NTBaFw0yMjA2MTIxMzM1NTBaMFExCzAJBgNVBAYTAkFVMRMwEQYDVQQI
DApTb21lLVN0YXRlMSEwHwYDVQQKDBhJbnRlcm5ldCBXaWRnaXRzIFB0eSBMdGQx
CjAIBgNVBAMMASowggEiMA0GCSqGSIb3DQEBAQUAA4IBDwAwggEKAoIBAQDSUGIQ
jkvp+nTnU5fqJbEmU1rt9qZyXpoPignist35vBCx3pq95mTZD8Gz7ULY959S9kk4
HV35zIx+yO+O9+jhfJwT4TJyp7nfaB+diIIJTOB8u5x0v51RV/OU+IDUgF/uHJil
QwglQrKbGyoqE4aAaPjqXdHXUJ81SfmcC6gXI7G5JmwyAII8UfK7xho9XhTOHbS5
mMtUOiH10UB1xQWGO+1+h3m6dFZGZUhB0J4je93HtMDfNsgBA7aWAye9bI5kM1r4
3Ul/wtHSqMc/XmN4KDvUxIf+ExaW9ImBwPyYilSKFCF/eyH89cg3DpRroqVTfhMn
z2ulC/j0U/pebdMlAgMBAAGjezB5MAkGA1UdEwQCMAAwLAYJYIZIAYb4QgENBB8W
HU9wZW5TU0wgR2VuZXJhdGVkIENlcnRpZmljYXRlMB0GA1UdDgQWBBQs/mibrW0g
9Tdiqjz+2HCUR3WHHTAfBgNVHSMEGDAWgBSqtZzUnMkMp8hVDJ6Y7lUDUgDZCDAN
BgkqhkiG9w0BAQsFAAOCAQEAlzYwo7JEH9LMJ2QihTGdA5MQe7zcBXZJqnGhcBEs
DWNqXwueOuvw3NgyVMUTO6B2tZv2Yvcae7ekK7QOs/KG+iKUqw80LRCYimLCJTMS
RZau6ZV0SVuGXUKlt7PK4h2apYEJ/znu+piBp62FaRrv0XMVBLGCbo9bW/cDFgtH
36XGeCbGKgkJOpuL7i4+FPeXTa8b0I8HfOJrWrXQO8zmjpeBe+uCY/XMQllLR/8r
7PgKVaW2FbodNPVZEd0qE3KymEBmRQC/s2UXa8IVylMKASbDjwnPVngzQcwqYs04
nRaj7M/1Wb9fqysq5hL1J/UwnYD7IE2m9qVvSOlZ3Iw8cg==
-----END CERTIFICATE-----
