Certificate:
    Data:
        Version: 3 (0x2)
        Serial Number:
            a6:49:54:a6:89:93:53:60
    Signature Algorithm: sha256WithRSAEncryption
        Issuer: C=AU, ST=Some-State, O=Internet Widgits Pty Ltd, CN=test
        Validity
            Not Before: Nov  2 23:39:18 2018 GMT
            Not After : Nov  2 23:39:18 2019 GMT
        Subject: C=AU, ST=Some-State, O=Internet Widgits Pty Ltd, CN=*
        Subject Public Key Info:
            Public Key Algorithm: rsaEncryption
                Public-Key: (2048 bit)
                Modulus:
                    00:f1:0b:dc:2a:78:1e:04:07:36:f1:22:6e:e1:f7:
                    b6:13:de:2b:9d:ab:8a:32:7b:84:26:e0:98:48:59:
                    c4:53:fc:a9:d6:38:e2:87:0f:a6:17:f2:90:48:2a:
                    cb:99:f2:c6:cd:3d:d1:eb:30:13:58:3e:8f:c4:d6:
                    b3:9c:e8:de:b8:65:04:01:a9:1f:dd:6e:43:10:82:
                    88:08:1b:72:a6:dd:d3:89:18:28:62:b6:8f:53:46:
                    f2:f4:37:d6:e9:b3:33:67:60:ee:d3:e0:47:7d:0f:
                    38:9e:1f:9d:60:2f:b3:12:02:eb:d3:ee:db:54:85:
                    79:16:9b:e2:d1:38:55:1b:ae:e8:12:5b:e6:23:43:
                    20:54:cf:0c:f5:9f:fe:40:fd:fe:27:4e:e5:ac:63:
                    f4:6b:9f:82:dc:0d:6d:6e:a2:14:5e:17:67:65:17:
                    b4:37:78:24:08:c5:01:83:f8:67:8f:f1:a0:7f:a5:
                    50:81:2a:d5:89:2f:b4:7f:14:e5:fe:45:bf:ee:ec:
                    ba:c1:30:e3:6a:f1:15:52:88:cb:be:ea:38:fd:43:
                    3d:66:3d:06:f9:5b:7c:46:6d:2f:54:33:4e:1d:1d:
                    7c:f8:9b:1e:52:ce:1f:79:64:2a:1d:5a:97:db:77:
                    c0:d7:ff:0b:be:83:0d:a5:08:17:77:48:e7:a9:40:
                    aa:c1
                Exponent: 65537 (0x10001)
        X509v3 extensions:
            X509v3 Basic Constraints: 
                CA:FALSE
            Netscape Comment: 
                OpenSSL Generated Certificate
            X509v3 Subject Key Identifier: 
                FE:63:9F:EB:7C:FD:DD:A1:5F:9E:0A:09:9B:52:5D:76:1B:8C:C6:0A
            X509v3 Authority Key Identifier: 
                keyid:1F:7A:B8:01:77:75:AD:E0:62:E6:C6:AD:0C:A8:50:33:47:F3:2D:33

    Signature Algorithm: sha256WithRSAEncryption
         4c:13:55:fe:43:04:f4:b3:af:e0:1c:b2:05:3b:24:73:17:d6:
         bf:83:b5:f2:e1:25:3b:ba:19:f5:1b:dd:74:96:35:1e:ec:80:
         1e:5c:c5:40:db:83:26:c5:fe:64:1a:12:4f:d4:b7:2a:03:13:
         2b:e9:e0:0f:a2:f7:66:88:3d:ac:f4:fe:43:a3:1e:63:ea:56:
         9b:97:ae:71:7c:df:ef:7c:57:ff:52:7f:08:68:46:0a:1c:90:
         bd:5f:b8:c1:6e:4a:f6:7b:f0:02:ef:8a:72:d7:c4:6c:99:d9:
         fb:f8:00:03:7d:6d:c5:41:c3:ab:eb:df:c1:21:ac:2b:ba:66:
         44:dd:d7:c9:46:46:b0:f5:48:fe:6a:24:b8:1b:cf:6f:44:cf:
         60:ab:e8:65:f3:47:cd:ce:21:01:e2:49:c8:97:fa:08:4e:b9:
         ca:bd:78:db:6b:27:d8:0f:e1:8f:f6:36:b8:f5:2d:0a:c9:4f:
         3c:bd:c6:fe:61:86:7f:51:fa:27:a0:ad:72:47:ed:f4:e0:0f:
         8d:fb:e3:63:d0:cc:89:2c:07:41:88:f4:a6:06:59:cc:64:4f:
         80:00:d9:be:0e:84:52:01:4b:08:b4:12:f9:7d:91:57:a5:bc:
         8e:5b:d7:fc:94:45:b7:e2:e7:6e:00:54:7f:e3:14:a5:08:1b:
         7c:b9:22:dd
-----BEGIN CERTIFICATE-----
MIIDozCCAougAwIBAgIJAKZJVKaJk1NgMA0GCSqGSIb3DQEBCwUAMFQxCzAJBgNV
BAYTAkFVMRMwEQYDVQQIDApTb21lLVN0YXRlMSEwHwYDVQQKDBhJbnRlcm5ldCBX
aWRnaXRzIFB0eSBMdGQxDTALBgNVBAMMBHRlc3QwHhcNMTgxMTAyMjMzOTE4WhcN
MTkxMTAyMjMzOTE4WjBRMQswCQYDVQQGEwJBVTETMBEGA1UECAwKU29tZS1TdGF0
ZTEhMB8GA1UECgwYSW50ZXJuZXQgV2lkZ2l0cyBQdHkgTHRkMQowCAYDVQQDDAEq
MIIBIjANBgkqhkiG9w0BAQEFAAOCAQ8AMIIBCgKCAQEA8QvcKngeBAc28SJu4fe2
E94rnauKMnuEJuCYSFnEU/yp1jjihw+mF/KQSCrLmfLGzT3R6zATWD6PxNaznOje
uGUEAakf3W5DEIKICBtypt3TiRgoYraPU0by9DfW6bMzZ2Du0+BHfQ84nh+dYC+z
EgLr0+7bVIV5Fpvi0ThVG67oElvmI0MgVM8M9Z/+QP3+J07lrGP0a5+C3A1tbqIU
XhdnZRe0N3gkCMUBg/hnj/Ggf6VQgSrViS+0fxTl/kW/7uy6wTDjavEVUojLvuo4
/UM9Zj0G+Vt8Rm0vVDNOHR18+JseUs4feWQqHVqX23fA1/8LvoMNpQgXd0jnqUCq
wQIDAQABo3sweTAJBgNVHRMEAjAAMCwGCWCGSAGG+EIBDQQfFh1PcGVuU1NMIEdl
bmVyYXRlZCBDZXJ0aWZpY2F0ZTAdBgNVHQ4EFgQU/mOf63z93aFfngoJm1JddhuM
xgowHwYDVR0jBBgwFoAUH3q4AXd1reBi5satDKhQM0fzLTMwDQYJKoZIhvcNAQEL
BQADggEBAEwTVf5DBPSzr+AcsgU7JHMX1r+DtfLhJTu6GfUb3XSWNR7sgB5cxUDb
gybF/mQaEk/UtyoDEyvp4A+i92aIPaz0/kOjHmPqVpuXrnF83+98V/9SfwhoRgoc
kL1fuMFuSvZ78ALvinLXxGyZ2fv4AAN9bcVBw6vr38EhrCu6ZkTd18lGRrD1SP5q
JLgbz29Ez2Cr6GXzR83OIQHiSciX+ghOucq9eNtrJ9gP4Y/2Nrj1LQrJTzy9xv5h
hn9R+iegrXJH7fTgD43742PQzIksB0GI9KYGWcxkT4AA2b4OhFIBSwi0Evl9kVel
vI5b1/yURbfi524AVH/jFKUIG3y5It0=
-----END CERTIFICATE-----
