Certificate:
    Data:
        Version: 3 (0x2)
        Serial Number: 16401505873524892479 (0xe39ddab16cef233f)
    Signature Algorithm: sha1WithRSAEncryption
        Issuer: C=AU, ST=Some-State, O=Internet Widgits Pty Ltd, CN=test
        Validity
            Not Before: Nov  1 14:18:00 2017 GMT
            Not After : Nov  1 14:18:00 2018 GMT
        Subject: C=AU, ST=Some-State, O=Internet Widgits Pty Ltd, CN=*
        Subject Public Key Info:
            Public Key Algorithm: rsaEncryption
                Public-Key: (2048 bit)
                Modulus:
                    00:e4:b7:31:a6:b1:46:57:4b:74:a1:8a:52:a2:10:
                    be:36:b8:2e:2a:57:b9:52:95:47:6a:8a:8e:df:dc:
                    a3:c9:a3:d6:63:2e:85:b8:d4:b3:f5:f4:14:77:26:
                    5c:2d:7e:ba:16:e0:96:80:8c:26:4c:8a:e0:b1:00:
                    95:7d:30:19:78:30:73:35:cd:3b:3b:f5:b6:dd:f4:
                    51:37:16:2e:99:96:d0:f8:77:f7:4a:87:0b:76:7e:
                    e9:02:ac:11:85:d1:13:0d:94:96:6e:2f:85:36:03:
                    32:cd:22:b2:b3:9c:b5:78:e7:c8:40:b8:1d:7d:fa:
                    ab:48:c6:59:a5:79:3d:14:44:d1:b3:7e:11:8a:51:
                    6c:04:52:53:eb:8a:0f:bc:c9:8d:d2:fa:54:13:43:
                    62:cc:19:85:61:cb:c8:bb:1d:88:ee:d8:36:97:0e:
                    d0:d7:64:4c:79:f0:1c:52:fa:b9:f4:ff:91:78:8a:
                    a2:a5:a9:2e:9a:8d:a1:d0:60:6d:9a:f1:04:80:cb:
                    b6:3e:55:cb:db:26:70:35:3c:ca:ee:70:ff:26:f1:
                    54:b8:f2:4b:0c:00:c1:0f:b3:36:75:dd:45:ea:fe:
                    e1:c7:27:21:fb:0e:1e:57:08:d5:4a:77:dc:85:dc:
                    b7:97:67:4d:3e:a2:2e:fa:61:63:ad:ee:6b:35:b1:
                    1e:ef
                Exponent: 65537 (0x10001)
        X509v3 extensions:
            X509v3 Basic Constraints: 
                CA:FALSE
            Netscape Comment: 
                OpenSSL Generated Certificate
            X509v3 Subject Key Identifier: 
                1D:F7:51:09:3A:01:2F:B3:0C:26:E4:43:EE:A6:67:30:B5:30:93:F0
            X509v3 Authority Key Identifier: 
                keyid:74:98:02:FA:11:B6:2A:BD:53:F4:64:92:85:8E:BF:1C:64:86:00:AF

    Signature Algorithm: sha1WithRSAEncryption
         55:1a:c2:1c:b9:75:96:27:29:d3:6a:16:29:66:a5:3b:1b:76:
         a3:07:55:c6:ef:70:41:85:58:4d:36:61:cb:27:2c:17:cb:3f:
         79:e4:4e:68:1e:02:74:3d:73:84:bf:29:65:67:c7:9a:6a:24:
         b1:73:e0:63:ba:cb:50:51:b8:2c:37:80:bc:88:47:c6:9c:5a:
         9c:4c:31:8a:73:b7:2a:6b:be:d2:6f:7b:02:d4:28:e1:c9:e9:
         c6:c4:51:7e:a6:5a:cd:dd:23:92:43:f8:40:e5:37:9a:84:32:
         94:70:09:3f:01:5c:b8:11:35:4e:f6:17:fd:c8:27:85:c5:3c:
         6e:35:db:d4:82:04:94:bf:31:6d:ab:f0:8b:bc:62:27:61:36:
         15:ed:9f:5e:20:dd:de:6b:13:a0:93:35:4c:18:12:fc:db:0e:
         fb:9f:d0:6e:14:04:e1:ee:e6:8b:e3:bf:08:25:be:25:cb:78:
         f5:11:b9:79:6a:ff:0d:82:e3:33:2b:d8:78:6a:1a:a9:51:fb:
         04:8f:87:5e:7b:98:e7:91:27:27:05:41:97:9a:51:7a:72:e8:
         e0:81:74:f8:04:2e:d5:48:ac:1a:61:71:ab:32:d7:cd:fc:27:
         4d:0b:44:79:03:84:df:76:5b:a4:c2:9e:ae:25:5d:06:74:30:
         a9:60:1a:18
-----BEGIN CERTIFICATE-----
MIIDozCCAougAwIBAgIJAOOd2rFs7yM/MA0GCSqGSIb3DQEBBQUAMFQxCzAJBgNV
BAYTAkFVMRMwEQYDVQQIDApTb21lLVN0YXRlMSEwHwYDVQQKDBhJbnRlcm5ldCBX
aWRnaXRzIFB0eSBMdGQxDTALBgNVBAMMBHRlc3QwHhcNMTcxMTAxMTQxODAwWhcN
MTgxMTAxMTQxODAwWjBRMQswCQYDVQQGEwJBVTETMBEGA1UECAwKU29tZS1TdGF0
ZTEhMB8GA1UECgwYSW50ZXJuZXQgV2lkZ2l0cyBQdHkgTHRkMQowCAYDVQQDDAEq
MIIBIjANBgkqhkiG9w0BAQEFAAOCAQ8AMIIBCgKCAQEA5LcxprFGV0t0oYpSohC+
NrguKle5UpVHaoqO39yjyaPWYy6FuNSz9fQUdyZcLX66FuCWgIwmTIrgsQCVfTAZ
eDBzNc07O/W23fRRNxYumZbQ+Hf3SocLdn7pAqwRhdETDZSWbi+FNgMyzSKys5y1
eOfIQLgdffqrSMZZpXk9FETRs34RilFsBFJT64oPvMmN0vpUE0NizBmFYcvIux2I
7tg2lw7Q12RMefAcUvq59P+ReIqipakumo2h0GBtmvEEgMu2PlXL2yZwNTzK7nD/
JvFUuPJLDADBD7M2dd1F6v7hxych+w4eVwjVSnfchdy3l2dNPqIu+mFjre5rNbEe
7wIDAQABo3sweTAJBgNVHRMEAjAAMCwGCWCGSAGG+EIBDQQfFh1PcGVuU1NMIEdl
bmVyYXRlZCBDZXJ0aWZpY2F0ZTAdBgNVHQ4EFgQUHfdRCToBL7MMJuRD7qZnMLUw
k/AwHwYDVR0jBBgwFoAUdJgC+hG2Kr1T9GSShY6/HGSGAK8wDQYJKoZIhvcNAQEF
BQADggEBAFUawhy5dZYnKdNqFilmpTsbdqMHVcbvcEGFWE02YcsnLBfLP3nkTmge
AnQ9c4S/KWVnx5pqJLFz4GO6y1BRuCw3gLyIR8acWpxMMYpztyprvtJvewLUKOHJ
6cbEUX6mWs3dI5JD+EDlN5qEMpRwCT8BXLgRNU72F/3IJ4XFPG4129SCBJS/MW2r
8Iu8YidhNhXtn14g3d5rE6CTNUwYEvzbDvuf0G4UBOHu5ovjvwglviXLePURuXlq
/w2C4zMr2HhqGqlR+wSPh157mOeRJycFQZeaUXpy6OCBdPgELtVIrBphcasy1838
J00LRHkDhN92W6TCnq4lXQZ0MKlgGhg=
-----END CERTIFICATE-----
