Certificate:
    Data:
        Version: 3 (0x2)
        Serial Number:
            3a:2b:93:c5:cb:28:93:bc:9d:57:e3:11:35:21:a2:a9:ac:63:34:4e
        Signature Algorithm: sha256WithRSAEncryption
        Issuer: C=AU, ST=Some-State, O=Internet Widgits Pty Ltd, CN=test
        Validity
            Not Before: Jan 27 11:11:44 2025 GMT
            Not After : Nov 11 11:11:44 2298 GMT
        Subject: C=AU, ST=Some-State, O=Internet Widgits Pty Ltd, CN=*
        Subject Public Key Info:
            Public Key Algorithm: rsaEncryption
                Public-Key: (2048 bit)
                Modulus:
                    00:8e:9b:b0:d2:03:42:37:8f:a0:bf:4b:6e:74:6c:
                    8b:bd:9c:18:b8:95:65:df:e1:31:f3:69:29:b9:dd:
                    78:18:d3:f3:54:b2:5f:68:12:c6:bf:b9:88:69:f2:
                    66:41:3b:e9:2a:58:9a:43:e5:99:41:c3:ca:f1:cd:
                    9e:5e:f9:73:11:fa:a7:60:4e:82:1b:ae:f0:67:94:
                    b9:68:5b:a5:7d:d9:92:44:cb:2a:e4:ff:be:15:07:
                    f1:b0:ca:6d:d1:12:d1:87:34:2a:c9:7a:48:04:22:
                    1d:3d:6c:59:ba:1f:fa:a5:de:c5:85:e8:95:7a:ee:
                    f2:2b:ea:45:19:52:00:d2:1c:30:37:7b:9a:c6:52:
                    0f:16:8c:1d:12:36:0c:f7:e8:0a:97:80:d9:e0:08:
                    be:a8:f1:53:f1:19:7f:81:cd:f3:0b:17:05:96:67:
                    d9:21:d1:59:a2:c9:68:34:d6:3b:8b:56:6e:96:a5:
                    95:a1:64:2c:79:e2:48:de:b1:d4:74:da:50:9c:4b:
                    85:45:7e:49:b0:4f:ee:70:b6:07:34:cd:12:67:47:
                    08:4b:b1:e1:a8:46:75:35:5b:8e:6e:e8:ad:10:8b:
                    fd:f1:58:54:cd:a4:1a:2b:18:75:e3:35:d1:b5:2b:
                    e4:70:0b:14:e2:0b:f9:2c:17:0b:47:f0:79:5f:5b:
                    2a:d5
                Exponent: 65537 (0x10001)
        X509v3 extensions:
            X509v3 Basic Constraints: 
                CA:FALSE
            X509v3 Subject Key Identifier: 
                37:7F:2B:9E:00:8E:3D:4F:77:FA:07:46:22:D0:91:CC:AC:39:17:17
            X509v3 Authority Key Identifier: 
                48:FC:8B:AD:85:55:56:D1:E8:F8:53:C2:73:61:27:ED:11:CD:64:67
    Signature Algorithm: sha256WithRSAEncryption
    Signature Value:
        3d:49:d5:4c:e5:d5:6b:c9:d7:db:20:aa:4f:ea:9b:a3:df:de:
        20:62:24:18:ef:e1:35:ec:ad:8a:93:f5:ae:bb:c6:d3:f9:a5:
        12:1e:85:7e:57:4a:d5:d4:2d:0a:45:c9:3c:19:09:aa:bb:67:
        08:b9:dc:be:14:48:9e:07:d3:e1:53:c3:7a:c5:f6:89:f0:88:
        d7:81:9b:52:4a:e6:ef:ca:d2:56:29:5e:b0:f7:ee:77:47:ae:
        49:38:66:67:e8:f3:da:44:e0:90:c3:90:6f:ff:67:41:ef:71:
        0f:f8:4a:b3:f4:12:bf:cb:9a:cc:fb:4d:48:ab:19:bc:a7:5d:
        96:15:8f:b8:04:d2:2e:27:41:06:99:59:5f:07:24:81:4f:84:
        0f:d2:13:6e:41:26:ba:82:c5:3d:38:76:2c:74:75:7a:d6:7a:
        a6:5d:30:a5:c9:70:38:04:54:d4:f9:e2:44:d1:c9:f9:1b:b3:
        99:83:f2:0d:4b:46:94:ea:1e:86:04:cf:f4:3a:9b:75:b2:41:
        e4:6d:3c:b2:64:b5:57:3c:60:5a:2f:e1:a5:6b:f4:77:d6:35:
        12:d8:23:53:e2:7a:8b:8f:1b:b0:41:43:73:54:d5:42:74:00:
        49:9c:58:f6:8a:91:12:53:31:34:5a:35:1b:e6:6a:3c:de:25:
        2f:7a:74:d8
-----BEGIN CERTIFICATE-----
MIIDgjCCAmqgAwIBAgIUOiuTxcsok7ydV+MRNSGiqaxjNE4wDQYJKoZIhvcNAQEL
BQAwVDELMAkGA1UEBhMCQVUxEzARBgNVBAgMClNvbWUtU3RhdGUxITAfBgNVBAoM
GEludGVybmV0IFdpZGdpdHMgUHR5IEx0ZDENMAsGA1UEAwwEdGVzdDAgFw0yNTAx
MjcxMTExNDRaGA8yMjk4MTExMTExMTE0NFowUTELMAkGA1UEBhMCQVUxEzARBgNV
BAgMClNvbWUtU3RhdGUxITAfBgNVBAoMGEludGVybmV0IFdpZGdpdHMgUHR5IEx0
ZDEKMAgGA1UEAwwBKjCCASIwDQYJKoZIhvcNAQEBBQADggEPADCCAQoCggEBAI6b
sNIDQjePoL9LbnRsi72cGLiVZd/hMfNpKbndeBjT81SyX2gSxr+5iGnyZkE76SpY
mkPlmUHDyvHNnl75cxH6p2BOghuu8GeUuWhbpX3ZkkTLKuT/vhUH8bDKbdES0Yc0
Ksl6SAQiHT1sWbof+qXexYXolXru8ivqRRlSANIcMDd7msZSDxaMHRI2DPfoCpeA
2eAIvqjxU/EZf4HN8wsXBZZn2SHRWaLJaDTWO4tWbpallaFkLHniSN6x1HTaUJxL
hUV+SbBP7nC2BzTNEmdHCEux4ahGdTVbjm7orRCL/fFYVM2kGisYdeM10bUr5HAL
FOIL+SwXC0fweV9bKtUCAwEAAaNNMEswCQYDVR0TBAIwADAdBgNVHQ4EFgQUN38r
ngCOPU93+gdGItCRzKw5FxcwHwYDVR0jBBgwFoAUSPyLrYVVVtHo+FPCc2En7RHN
ZGcwDQYJKoZIhvcNAQELBQADggEBAD1J1Uzl1WvJ19sgqk/qm6Pf3iBiJBjv4TXs
rYqT9a67xtP5pRIehX5XStXULQpFyTwZCaq7Zwi53L4USJ4H0+FTw3rF9onwiNeB
m1JK5u/K0lYpXrD37ndHrkk4Zmfo89pE4JDDkG//Z0HvcQ/4SrP0Er/Lmsz7TUir
GbynXZYVj7gE0i4nQQaZWV8HJIFPhA/SE25BJrqCxT04dix0dXrWeqZdMKXJcDgE
VNT54kTRyfkbs5mD8g1LRpTqHoYEz/Q6m3WyQeRtPLJktVc8YFov4aVr9HfWNRLY
I1PieouPG7BBQ3NU1UJ0AEmcWPaKkRJTMTRaNRvmajzeJS96dNg=
-----END CERTIFICATE-----
