Certificate:
    Data:
        Version: 3 (0x2)
        Serial Number:
            2d:aa:29:0d:f2:c4:b4:7e:00:90:16:61:f8:60:11:2b:2a:0d:bb:3e
        Signature Algorithm: sha256WithRSAEncryption
        Issuer: C=AU, ST=Some-State, O=Internet Widgits Pty Ltd, CN=test
        Validity
            Not Before: Jul  3 11:42:31 2023 GMT
            Not After : Jul  2 11:42:31 2024 GMT
        Subject: C=AU, ST=Some-State, O=Internet Widgits Pty Ltd, CN=*
        Subject Public Key Info:
            Public Key Algorithm: rsaEncryption
                Public-Key: (2048 bit)
                Modulus:
                    00:ab:28:ef:c2:6b:49:b0:99:59:9d:69:7c:d3:54:
                    b7:a4:e6:58:bf:51:7d:de:4f:d2:31:87:a4:5b:ef:
                    15:79:11:3b:d1:60:5d:92:f4:79:ae:2e:fe:13:8b:
                    0b:0f:06:a4:44:e2:55:8f:c3:cc:93:1d:54:65:f4:
                    c1:11:59:55:a2:ec:7f:15:f4:11:16:ee:cf:32:f1:
                    66:72:d7:25:17:a6:b0:94:5f:d2:88:5c:50:73:c9:
                    85:7a:90:af:e0:d9:d1:33:41:f0:58:93:84:82:7b:
                    3d:55:bc:59:a4:dc:c7:0c:31:9d:b0:27:f2:94:79:
                    69:ae:68:d0:4b:7f:6e:e5:54:05:dc:af:62:f9:de:
                    07:d7:47:e4:a0:9a:f8:bb:48:47:5b:51:cd:1c:f9:
                    f1:fa:1d:d9:79:fa:6e:44:a7:2d:07:c5:78:61:f5:
                    76:ba:d7:66:99:60:97:65:5b:a9:d8:53:f5:11:76:
                    7f:05:88:5e:b7:f6:38:81:65:34:80:4f:9b:91:79:
                    9f:aa:4c:64:e4:94:67:cd:8e:7d:6b:80:f1:8a:49:
                    d5:27:af:55:a0:a5:27:4f:0f:1e:59:af:a6:c9:4c:
                    12:4b:d9:f1:f2:15:01:8d:f6:a5:6c:2b:b8:75:dc:
                    7f:a8:52:0e:03:41:86:e8:17:13:fd:65:40:9a:09:
                    66:13
                Exponent: 65537 (0x10001)
        X509v3 extensions:
            X509v3 Basic Constraints: 
                CA:FALSE
            X509v3 Subject Key Identifier: 
                D3:96:63:F7:D7:0F:80:65:B8:71:A4:83:C0:35:35:BE:4E:AA:34:8F
            X509v3 Authority Key Identifier: 
                21:F5:CC:2F:30:24:A3:B7:A9:8D:6E:03:3D:E2:F4:04:9C:FB:1E:74
    Signature Algorithm: sha256WithRSAEncryption
    Signature Value:
        66:7f:0c:0b:00:a7:8f:a7:b1:71:f5:a1:44:f9:60:22:f7:70:
        f1:46:04:be:cf:64:a8:62:25:b0:43:69:b8:84:7d:54:3f:25:
        0a:a9:f8:1e:e4:42:a3:7f:58:3e:70:7e:5a:2e:48:49:ab:82:
        e8:b8:c9:11:cb:33:c3:33:26:19:8b:a9:b2:85:23:4f:cb:4f:
        66:92:9e:5c:b1:15:52:e5:9b:14:74:18:3d:e2:8d:a1:0f:ee:
        97:ce:0e:50:ef:cc:53:d4:8f:dc:e4:f1:be:ec:c1:85:8e:6c:
        15:c2:b6:7a:13:b5:57:aa:49:1d:32:b2:d9:6b:0a:3d:58:ef:
        32:f7:f5:df:00:59:d8:fa:51:52:6b:de:45:5a:66:f8:ee:bc:
        a6:ea:36:7a:fc:25:85:4f:c2:79:22:4c:90:d6:24:df:52:cd:
        9d:49:e8:55:16:d1:7b:09:66:46:80:ca:30:02:cc:fc:3e:ea:
        de:7c:b8:3c:be:a5:8c:ea:7f:db:01:fb:ed:94:95:c0:76:3c:
        d8:26:59:55:a2:5e:97:45:68:56:ea:f5:9a:1e:a0:d6:98:38:
        0c:5e:06:41:6a:f9:f3:e9:60:ff:c3:ae:0b:54:60:fd:17:10:
        51:e9:c9:ca:04:d0:5d:91:34:33:56:90:59:55:46:2f:d7:ec:
        b8:65:a3:c3
-----BEGIN CERTIFICATE-----
MIIDgDCCAmigAwIBAgIULaopDfLEtH4AkBZh+GARKyoNuz4wDQYJKoZIhvcNAQEL
BQAwVDELMAkGA1UEBhMCQVUxEzARBgNVBAgMClNvbWUtU3RhdGUxITAfBgNVBAoM
GEludGVybmV0IFdpZGdpdHMgUHR5IEx0ZDENMAsGA1UEAwwEdGVzdDAeFw0yMzA3
MDMxMTQyMzFaFw0yNDA3MDIxMTQyMzFaMFExCzAJBgNVBAYTAkFVMRMwEQYDVQQI
DApTb21lLVN0YXRlMSEwHwYDVQQKDBhJbnRlcm5ldCBXaWRnaXRzIFB0eSBMdGQx
CjAIBgNVBAMMASowggEiMA0GCSqGSIb3DQEBAQUAA4IBDwAwggEKAoIBAQCrKO/C
a0mwmVmdaXzTVLek5li/UX3eT9Ixh6Rb7xV5ETvRYF2S9HmuLv4TiwsPBqRE4lWP
w8yTHVRl9MERWVWi7H8V9BEW7s8y8WZy1yUXprCUX9KIXFBzyYV6kK/g2dEzQfBY
k4SCez1VvFmk3McMMZ2wJ/KUeWmuaNBLf27lVAXcr2L53gfXR+Sgmvi7SEdbUc0c
+fH6Hdl5+m5Epy0HxXhh9Xa612aZYJdlW6nYU/URdn8FiF639jiBZTSAT5uReZ+q
TGTklGfNjn1rgPGKSdUnr1WgpSdPDx5Zr6bJTBJL2fHyFQGN9qVsK7h13H+oUg4D
QYboFxP9ZUCaCWYTAgMBAAGjTTBLMAkGA1UdEwQCMAAwHQYDVR0OBBYEFNOWY/fX
D4BluHGkg8A1Nb5OqjSPMB8GA1UdIwQYMBaAFCH1zC8wJKO3qY1uAz3i9ASc+x50
MA0GCSqGSIb3DQEBCwUAA4IBAQBmfwwLAKePp7Fx9aFE+WAi93DxRgS+z2SoYiWw
Q2m4hH1UPyUKqfge5EKjf1g+cH5aLkhJq4LouMkRyzPDMyYZi6myhSNPy09mkp5c
sRVS5ZsUdBg94o2hD+6Xzg5Q78xT1I/c5PG+7MGFjmwVwrZ6E7VXqkkdMrLZawo9
WO8y9/XfAFnY+lFSa95FWmb47rym6jZ6/CWFT8J5IkyQ1iTfUs2dSehVFtF7CWZG
gMowAsz8PurefLg8vqWM6n/bAfvtlJXAdjzYJllVol6XRWhW6vWaHqDWmDgMXgZB
avnz6WD/w64LVGD9FxBR6cnKBNBdkTQzVpBZVUYv1+y4ZaPD
-----END CERTIFICATE-----
