Certificate:
    Data:
        Version: 3 (0x2)
        Serial Number:
            fb:31:10:62:a9:61:e5:46
    Signature Algorithm: sha256WithRSAEncryption
        Issuer: C=AU, ST=Some-State, O=Internet Widgits Pty Ltd, CN=test
        Validity
            Not Before: Oct 27 22:19:32 2016 GMT
            Not After : Oct 27 22:19:32 2017 GMT
        Subject: C=AU, ST=Some-State, O=Internet Widgits Pty Ltd, CN=*
        Subject Public Key Info:
            Public Key Algorithm: rsaEncryption
                Public-Key: (2048 bit)
                Modulus:
                    00:ba:8d:93:2b:b0:77:d2:f2:ef:53:61:1b:f7:22:
                    96:b3:db:de:65:26:e7:ca:98:17:ef:8c:34:f8:ce:
                    b1:64:74:cb:0c:36:9e:f8:7f:c5:46:11:2f:40:83:
                    ea:00:91:1e:a8:94:ef:80:c7:0d:86:41:4f:d0:8a:
                    af:de:5a:d9:c8:56:0b:40:b8:b0:68:b5:69:ca:53:
                    52:4e:12:a0:a8:d3:0a:e2:66:61:f2:cf:f6:e9:85:
                    c1:63:94:6e:ff:c6:9b:74:d0:a6:a3:a9:40:f4:6a:
                    7a:ce:ae:13:df:dc:54:38:07:88:39:ba:2c:e7:6d:
                    81:7c:08:3e:18:3e:bd:08:19:8d:fd:35:40:3d:84:
                    33:23:16:d4:2f:10:35:68:07:17:e4:4d:2b:c7:81:
                    25:04:fc:cf:e1:10:dc:7d:64:22:0c:79:fc:1e:c3:
                    2f:7b:e3:0f:08:54:3a:3d:60:bd:81:2a:ab:df:db:
                    32:16:df:ac:4f:ac:85:c4:9e:56:b5:fa:f7:92:b6:
                    6a:69:94:09:65:da:6c:e7:a2:d1:2c:ab:1b:d2:45:
                    9a:e9:09:fc:c9:c0:9c:50:79:9b:b0:e7:95:66:26:
                    56:d1:30:19:3f:01:a3:60:b7:66:13:02:62:df:7b:
                    c6:98:c9:f4:7c:55:6b:80:87:e0:89:9a:21:70:06:
                    ec:07
                Exponent: 65537 (0x10001)
        X509v3 extensions:
            X509v3 Basic Constraints: 
                CA:FALSE
            Netscape Comment: 
                OpenSSL Generated Certificate
            X509v3 Subject Key Identifier: 
                6B:03:14:CD:66:06:85:A7:FB:33:F8:19:D4:B9:37:16:78:01:E6:D5
            X509v3 Authority Key Identifier: 
                keyid:6F:8B:50:9F:3F:E8:2B:49:F9:6E:2A:4C:16:3E:12:35:2A:90:33:8C

    Signature Algorithm: sha256WithRSAEncryption
         3f:44:4e:e1:b5:76:ad:98:f0:a1:f8:1e:e5:37:1d:42:21:7f:
         3a:c7:c6:c4:b1:b5:58:26:74:d5:61:1f:64:c0:e4:d8:c5:af:
         ca:5e:a3:e9:d6:15:72:7b:0a:d1:7b:5f:28:61:73:71:22:cc:
         49:dd:03:5c:49:e7:bf:c9:fa:b2:b5:18:d9:39:df:b1:9f:c3:
         6e:10:a4:e1:28:f9:34:b8:89:85:52:40:fb:e4:28:cd:35:e0:
         f1:21:cc:7b:7d:68:32:26:4b:b9:ef:60:3f:7f:5e:d9:ca:75:
         e6:ef:92:3a:b3:e0:27:c7:f9:12:9b:b7:ed:2e:1d:a5:dc:be:
         05:a3:f0:33:85:8e:41:72:c7:b0:46:94:d9:32:d6:5a:70:f8:
         3c:79:a2:7f:0a:65:a6:69:33:36:e7:1d:4e:c9:52:47:f9:95:
         e6:9a:7d:1b:27:ab:f3:75:5f:d5:42:30:e0:1a:c6:b9:76:09:
         ae:72:da:34:05:6d:d6:c7:71:ed:d2:ac:ce:41:24:d1:7c:68:
         c5:bf:ae:24:66:78:9a:2b:5c:59:95:7f:9e:f0:15:17:d6:eb:
         48:89:f3:e6:ea:d2:f1:ba:54:48:97:d3:dc:36:1e:0a:ed:20:
         c0:32:f1:3d:32:32:2c:62:b8:9d:3e:e8:98:54:dd:e2:30:8d:
         49:de:b7:30
-----BEGIN CERTIFICATE-----
MIIDozCCAougAwIBAgIJAPsxEGKpYeVGMA0GCSqGSIb3DQEBCwUAMFQxCzAJBgNV
BAYTAkFVMRMwEQYDVQQIDApTb21lLVN0YXRlMSEwHwYDVQQKDBhJbnRlcm5ldCBX
aWRnaXRzIFB0eSBMdGQxDTALBgNVBAMMBHRlc3QwHhcNMTYxMDI3MjIxOTMyWhcN
MTcxMDI3MjIxOTMyWjBRMQswCQYDVQQGEwJBVTETMBEGA1UECAwKU29tZS1TdGF0
ZTEhMB8GA1UECgwYSW50ZXJuZXQgV2lkZ2l0cyBQdHkgTHRkMQowCAYDVQQDDAEq
MIIBIjANBgkqhkiG9w0BAQEFAAOCAQ8AMIIBCgKCAQEAuo2TK7B30vLvU2Eb9yKW
s9veZSbnypgX74w0+M6xZHTLDDae+H/FRhEvQIPqAJEeqJTvgMcNhkFP0Iqv3lrZ
yFYLQLiwaLVpylNSThKgqNMK4mZh8s/26YXBY5Ru/8abdNCmo6lA9Gp6zq4T39xU
OAeIObos522BfAg+GD69CBmN/TVAPYQzIxbULxA1aAcX5E0rx4ElBPzP4RDcfWQi
DHn8HsMve+MPCFQ6PWC9gSqr39syFt+sT6yFxJ5Wtfr3krZqaZQJZdps56LRLKsb
0kWa6Qn8ycCcUHmbsOeVZiZW0TAZPwGjYLdmEwJi33vGmMn0fFVrgIfgiZohcAbs
BwIDAQABo3sweTAJBgNVHRMEAjAAMCwGCWCGSAGG+EIBDQQfFh1PcGVuU1NMIEdl
bmVyYXRlZCBDZXJ0aWZpY2F0ZTAdBgNVHQ4EFgQUawMUzWYGhaf7M/gZ1Lk3FngB
5tUwHwYDVR0jBBgwFoAUb4tQnz/oK0n5bipMFj4SNSqQM4wwDQYJKoZIhvcNAQEL
BQADggEBAD9ETuG1dq2Y8KH4HuU3HUIhfzrHxsSxtVgmdNVhH2TA5NjFr8peo+nW
FXJ7CtF7Xyhhc3EizEndA1xJ57/J+rK1GNk537Gfw24QpOEo+TS4iYVSQPvkKM01
4PEhzHt9aDImS7nvYD9/XtnKdebvkjqz4CfH+RKbt+0uHaXcvgWj8DOFjkFyx7BG
lNky1lpw+Dx5on8KZaZpMzbnHU7JUkf5leaafRsnq/N1X9VCMOAaxrl2Ca5y2jQF
bdbHce3SrM5BJNF8aMW/riRmeJorXFmVf57wFRfW60iJ8+bq0vG6VEiX09w2Hgrt
IMAy8T0yMixiuJ0+6JhU3eIwjUnetzA=
-----END CERTIFICATE-----
