Certificate:
    Data:
        Version: 3 (0x2)
        Serial Number: 14871306350806521256 (0xce617e55a1d555a8)
    Signature Algorithm: sha256WithRSAEncryption
        Issuer: C=AU, ST=Some-State, O=Internet Widgits Pty Ltd, CN=test
        Validity
            Not Before: Oct 25 14:26:31 2015 GMT
            Not After : Oct 24 14:26:31 2016 GMT
        Subject: C=AU, ST=Some-State, O=Internet Widgits Pty Ltd, CN=*
        Subject Public Key Info:
            Public Key Algorithm: rsaEncryption
                Public-Key: (2048 bit)
                Modulus:
                    00:c9:38:31:3c:6e:51:09:61:cd:82:76:9f:2c:ed:
                    5c:27:40:1d:19:38:87:33:fe:c2:6a:2a:27:62:c8:
                    d2:bc:77:59:29:ff:e1:8b:34:c3:1d:32:1d:16:13:
                    83:a8:65:ff:31:35:20:94:5d:7b:dd:fd:df:7a:20:
                    29:15:16:f8:ea:d7:8a:8a:c0:5b:51:a4:01:12:91:
                    45:69:97:b6:88:99:92:ac:ee:d4:f0:15:aa:c3:c8:
                    50:7d:3a:40:ef:8b:19:76:80:d5:ac:54:c8:a8:e9:
                    03:c8:46:84:82:e9:1e:20:f9:2f:9c:1c:05:d0:2f:
                    9e:ec:e1:83:5a:c0:40:5a:d9:13:63:f8:82:bd:e0:
                    1e:be:f0:51:b8:89:d2:a9:1f:91:05:47:96:cc:e7:
                    c7:7f:2a:15:e0:b1:47:3c:06:f9:26:dd:46:7d:f2:
                    fb:db:9b:28:91:dd:0c:2f:4f:8b:3a:06:f4:94:b3:
                    06:cb:32:e1:92:a8:27:33:cb:a4:c5:49:66:d9:8d:
                    f2:a3:fd:79:87:6f:08:4c:41:a0:31:73:b9:bc:d2:
                    2c:51:97:d8:be:47:0a:00:1a:e5:3e:29:7c:d0:fa:
                    2a:f5:5f:dc:37:23:ca:e1:0f:22:e2:b0:3a:ae:fd:
                    6e:2b:0b:5d:5f:b6:39:e8:e5:9d:96:c7:75:e9:03:
                    07:29
                Exponent: 65537 (0x10001)
        X509v3 extensions:
            X509v3 Basic Constraints: 
                CA:FALSE
            Netscape Comment: 
                OpenSSL Generated Certificate
            X509v3 Subject Key Identifier: 
                0B:97:36:7B:C5:57:FA:7D:CE:5A:D5:E0:63:98:30:AF:B0:B8:D9:23
            X509v3 Authority Key Identifier: 
                keyid:B9:1E:30:D4:EF:99:61:92:54:65:0F:73:12:47:29:AF:2F:07:B9:52

    Signature Algorithm: sha256WithRSAEncryption
         d7:ba:e3:49:c5:c1:29:1a:db:22:be:9e:3e:d0:be:2d:b2:c0:
         c9:25:98:c8:ec:b3:82:fa:a6:50:14:ec:0a:de:0c:c2:42:85:
         23:12:4c:d5:05:74:ee:39:68:97:2c:0b:f9:8d:e9:d1:75:8d:
         cb:5b:6c:84:8e:f8:9a:c3:a2:7d:2f:3b:5f:33:2c:6f:84:61:
         99:0e:b9:58:9e:a5:40:16:a6:1e:ad:96:61:f9:27:d7:08:b2:
         2a:18:85:2a:9e:d5:92:66:cb:19:f7:54:e9:72:10:36:84:18:
         4f:20:63:a5:9d:21:ac:79:42:b6:af:e9:fc:c0:fc:d3:a3:ac:
         10:b6:bd:76:81:26:57:16:28:a9:3f:b0:01:85:fb:02:3e:7a:
         29:56:2e:ce:3e:fb:3b:08:ae:80:66:a6:ca:42:c3:68:0a:4b:
         a8:5b:a1:82:e4:95:2a:70:f0:d0:a8:c6:d4:77:f9:35:ef:a6:
         31:29:02:7b:57:7c:0b:de:6d:55:9c:dd:11:89:21:99:39:d9:
         18:ac:63:93:1d:7d:e1:0e:c5:04:d7:c3:69:44:68:9c:3c:b8:
         bc:b9:d1:a4:2a:02:e3:2e:ef:b0:73:6a:6a:bd:be:f3:51:d0:
         12:9d:d9:1c:77:ca:4c:07:52:08:40:54:d3:54:55:72:be:bc:
         4b:9d:75:af
-----BEGIN CERTIFICATE-----
MIIDozCCAougAwIBAgIJAM5hflWh1VWoMA0GCSqGSIb3DQEBCwUAMFQxCzAJBgNV
BAYTAkFVMRMwEQYDVQQIDApTb21lLVN0YXRlMSEwHwYDVQQKDBhJbnRlcm5ldCBX
aWRnaXRzIFB0eSBMdGQxDTALBgNVBAMMBHRlc3QwHhcNMTUxMDI1MTQyNjMxWhcN
MTYxMDI0MTQyNjMxWjBRMQswCQYDVQQGEwJBVTETMBEGA1UECAwKU29tZS1TdGF0
ZTEhMB8GA1UECgwYSW50ZXJuZXQgV2lkZ2l0cyBQdHkgTHRkMQowCAYDVQQDDAEq
MIIBIjANBgkqhkiG9w0BAQEFAAOCAQ8AMIIBCgKCAQEAyTgxPG5RCWHNgnafLO1c
J0AdGTiHM/7CaionYsjSvHdZKf/hizTDHTIdFhODqGX/MTUglF173f3feiApFRb4
6teKisBbUaQBEpFFaZe2iJmSrO7U8BWqw8hQfTpA74sZdoDVrFTIqOkDyEaEguke
IPkvnBwF0C+e7OGDWsBAWtkTY/iCveAevvBRuInSqR+RBUeWzOfHfyoV4LFHPAb5
Jt1GffL725sokd0ML0+LOgb0lLMGyzLhkqgnM8ukxUlm2Y3yo/15h28ITEGgMXO5
vNIsUZfYvkcKABrlPil80Poq9V/cNyPK4Q8i4rA6rv1uKwtdX7Y56OWdlsd16QMH
KQIDAQABo3sweTAJBgNVHRMEAjAAMCwGCWCGSAGG+EIBDQQfFh1PcGVuU1NMIEdl
bmVyYXRlZCBDZXJ0aWZpY2F0ZTAdBgNVHQ4EFgQUC5c2e8VX+n3OWtXgY5gwr7C4
2SMwHwYDVR0jBBgwFoAUuR4w1O+ZYZJUZQ9zEkcpry8HuVIwDQYJKoZIhvcNAQEL
BQADggEBANe640nFwSka2yK+nj7Qvi2ywMklmMjss4L6plAU7AreDMJChSMSTNUF
dO45aJcsC/mN6dF1jctbbISO+JrDon0vO18zLG+EYZkOuViepUAWph6tlmH5J9cI
sioYhSqe1ZJmyxn3VOlyEDaEGE8gY6WdIax5Qrav6fzA/NOjrBC2vXaBJlcWKKk/
sAGF+wI+eilWLs4++zsIroBmpspCw2gKS6hboYLklSpw8NCoxtR3+TXvpjEpAntX
fAvebVWc3RGJIZk52RisY5MdfeEOxQTXw2lEaJw8uLy50aQqAuMu77Bzamq9vvNR
0BKd2Rx3ykwHUghAVNNUVXK+vEudda8=
-----END CERTIFICATE-----
