Certificate:
    Data:
        Version: 3 (0x2)
        Serial Number: 17335853646391593947 (0xf095530ac754cbdb)
    Signature Algorithm: sha1WithRSAEncryption
        Issuer: C=AU, ST=Some-State, O=Internet Widgits Pty Ltd, CN=test root cert
        Validity
            Not Before: Jul 27 23:50:37 2013 GMT
            Not After : Jul 27 23:50:37 2014 GMT
        Subject: C=AU, ST=Some-State, O=Internet Widgits Pty Ltd, CN=*
        Subject Public Key Info:
            Public Key Algorithm: rsaEncryption
                Public-Key: (1024 bit)
                Modulus:
                    00:e4:4d:f9:0f:d2:c4:d2:f0:e7:e7:ab:10:ea:75:
                    88:be:21:13:29:bd:bf:8a:7a:dc:07:1b:0c:cf:e1:
                    c8:09:81:04:f9:ce:85:12:92:62:38:23:28:03:27:
                    c8:0f:b5:5b:63:51:8a:2d:8c:dd:83:a8:ef:90:4c:
                    3b:ec:de:91:5c:e6:bd:74:9e:86:10:b0:f0:c0:bf:
                    de:27:f2:2e:2e:d7:b0:77:35:c0:80:41:b3:20:9b:
                    06:62:20:6a:b4:52:8c:b6:44:46:b5:9e:fb:d2:fe:
                    53:fe:10:8a:5a:f9:df:14:ad:00:66:29:fb:74:8b:
                    8d:29:4c:41:87:d0:d5:a5:35
                Exponent: 65537 (0x10001)
        X509v3 extensions:
            X509v3 Basic Constraints: 
                CA:FALSE
            Netscape Comment: 
                OpenSSL Generated Certificate
            X509v3 Subject Key Identifier: 
                2A:EE:9B:AF:32:D9:B2:A9:E5:46:42:53:A9:6E:B7:87:7A:EA:E9:63
            X509v3 Authority Key Identifier: 
                keyid:B7:EA:25:4E:F3:13:05:CB:7F:6E:14:BD:13:BC:84:68:ED:35:8E:74

    Signature Algorithm: sha1WithRSAEncryption
         a8:dd:09:73:90:9e:48:95:8f:cc:fc:d7:0a:53:a8:07:5f:c5:
         6b:1f:f6:e5:52:92:91:de:5d:7f:e5:a5:b4:d0:0c:23:4c:5c:
         1a:7a:96:fc:e5:76:62:e7:ce:c3:2f:4d:54:e1:06:57:af:71:
         10:48:a5:49:95:cf:ab:8c:12:e9:de:93:1f:6c:bd:24:3b:e3:
         1b:ce:a5:19:aa:82:49:9d:44:1e:fb:57:cb:b9:ca:06:9d:44:
         d6:5f:72:28:8a:a9:45:26:e8:9f:f5:a5:e3:12:05:5e:5e:d8:
         96:90:4c:78:bc:16:45:fe:49:8e:34:78:e1:16:46:3d:26:90:
         e3:5d
-----BEGIN CERTIFICATE-----
MIICqDCCAhGgAwIBAgIJAPCVUwrHVMvbMA0GCSqGSIb3DQEBBQUAMF4xCzAJBgNV
BAYTAkFVMRMwEQYDVQQIDApTb21lLVN0YXRlMSEwHwYDVQQKDBhJbnRlcm5ldCBX
aWRnaXRzIFB0eSBMdGQxFzAVBgNVBAMMDnRlc3Qgcm9vdCBjZXJ0MB4XDTEzMDcy
NzIzNTAzN1oXDTE0MDcyNzIzNTAzN1owUTELMAkGA1UEBhMCQVUxEzARBgNVBAgM
ClNvbWUtU3RhdGUxITAfBgNVBAoMGEludGVybmV0IFdpZGdpdHMgUHR5IEx0ZDEK
MAgGA1UEAwwBKjCBnzANBgkqhkiG9w0BAQEFAAOBjQAwgYkCgYEA5E35D9LE0vDn
56sQ6nWIviETKb2/inrcBxsMz+HICYEE+c6FEpJiOCMoAyfID7VbY1GKLYzdg6jv
kEw77N6RXOa9dJ6GELDwwL/eJ/IuLtewdzXAgEGzIJsGYiBqtFKMtkRGtZ770v5T
/hCKWvnfFK0AZin7dIuNKUxBh9DVpTUCAwEAAaN7MHkwCQYDVR0TBAIwADAsBglg
hkgBhvhCAQ0EHxYdT3BlblNTTCBHZW5lcmF0ZWQgQ2VydGlmaWNhdGUwHQYDVR0O
BBYEFCrum68y2bKp5UZCU6lut4d66uljMB8GA1UdIwQYMBaAFLfqJU7zEwXLf24U
vRO8hGjtNY50MA0GCSqGSIb3DQEBBQUAA4GBAKjdCXOQnkiVj8z81wpTqAdfxWsf
9uVSkpHeXX/lpbTQDCNMXBp6lvzldmLnzsMvTVThBlevcRBIpUmVz6uMEunekx9s
vSQ74xvOpRmqgkmdRB77V8u5ygadRNZfciiKqUUm6J/1peMSBV5e2JaQTHi8FkX+
SY40eOEWRj0mkONd
-----END CERTIFICATE-----
