Certificate:
    Data:
        Version: 3 (0x2)
        Serial Number:
            06:e7:e4:64:c9:d9:48:85:6e:8f:60:e2:28:e4:1b:6e:9c:0c:ea:53
        Signature Algorithm: sha256WithRSAEncryption
        Issuer: C=AU, ST=Some-State, O=Internet Widgits Pty Ltd, CN=test
        Validity
            Not Before: Feb 18 17:07:04 2024 GMT
            Not After : Dec  2 17:07:04 2297 GMT
        Subject: C=AU, ST=Some-State, O=Internet Widgits Pty Ltd, CN=*
        Subject Public Key Info:
            Public Key Algorithm: rsaEncryption
                Public-Key: (2048 bit)
                Modulus:
                    00:c6:51:76:70:d9:58:47:9e:63:e1:eb:3f:8a:ba:
                    1b:c6:88:74:ec:83:24:07:3f:31:e8:d6:85:8f:c3:
                    f0:e0:25:a5:c2:56:c6:52:c2:f2:7f:78:ac:ea:60:
                    c2:15:63:75:c5:b9:94:b9:0e:3a:36:61:95:4c:70:
                    ae:4e:f7:bc:0a:64:5b:81:f8:b1:f4:1a:f4:f8:40:
                    db:68:b4:b3:d6:1c:e0:5a:66:c9:28:c2:f8:10:37:
                    91:f3:97:8a:3c:75:d6:9a:5c:ea:2b:7d:e5:31:6b:
                    7e:59:85:8e:ff:79:36:99:cd:eb:bd:89:e1:97:46:
                    24:15:1f:09:2c:16:2d:23:5e:0e:dd:67:85:2d:2a:
                    dc:34:3d:6b:f7:16:f5:ad:4f:c9:3d:d4:98:90:5f:
                    94:65:0f:f1:ed:d6:64:ba:d6:0e:d6:47:c0:4f:ac:
                    87:ad:43:85:b8:35:43:74:45:ed:b9:c7:9b:49:2c:
                    80:b5:ac:9b:d2:75:9e:54:7c:37:7b:25:da:66:24:
                    eb:3b:0c:60:f4:cb:a6:e5:42:67:2a:4b:98:68:6d:
                    5f:ff:ac:34:c1:f1:f8:c8:d7:47:ea:f3:28:b3:6c:
                    97:ee:22:17:83:4a:53:d6:32:45:f6:86:46:f6:41:
                    75:10:87:f6:b0:d4:30:d5:90:c2:48:c4:f7:b7:a6:
                    56:a9
                Exponent: 65537 (0x10001)
        X509v3 extensions:
            X509v3 Basic Constraints: 
                CA:FALSE
            X509v3 Subject Key Identifier: 
                DA:BC:2B:AD:A5:5D:31:71:F5:15:15:8E:BF:6B:95:98:C3:63:54:91
            X509v3 Authority Key Identifier: 
                E8:2D:53:4D:3D:32:F9:74:EC:60:5A:D8:8D:7D:D2:A0:F1:71:4E:B1
    Signature Algorithm: sha256WithRSAEncryption
    Signature Value:
        40:42:e1:34:e4:3f:e9:1c:7c:c0:9f:2a:10:94:15:7e:13:91:
        7a:bb:6a:95:62:32:7a:1a:9c:ee:73:3f:f0:64:5c:95:b6:a7:
        33:7f:e0:3c:0a:51:d2:39:f3:0a:29:23:d3:3d:ab:df:3c:64:
        fe:92:16:b0:b5:ff:85:af:ff:41:5d:50:0f:9b:d9:ee:3d:b9:
        3e:81:ad:98:07:d0:fe:3a:b4:9e:61:8b:4a:ad:db:3a:24:85:
        9c:93:61:bc:b2:6f:8b:e5:e1:8b:83:8a:f0:10:b8:6d:cd:a6:
        7b:8d:06:1e:12:11:b9:ae:cf:69:b4:0c:e1:7a:34:bd:87:70:
        19:f2:0d:76:bc:28:b3:1f:ce:64:b4:c8:d7:e0:fe:54:01:eb:
        e6:3a:ae:4e:63:1b:08:64:74:5a:38:f9:b2:a5:64:8e:98:c2:
        a4:51:cf:89:85:2a:db:79:97:5a:23:5c:d8:27:2c:a3:d7:ae:
        24:f9:27:cb:5a:a3:5a:59:70:ab:13:46:02:8e:e7:ed:b2:ea:
        5f:ef:28:cb:a2:73:10:4d:87:be:2e:68:09:89:42:dc:1b:17:
        f6:73:da:1a:41:3d:76:3d:fa:af:b2:8a:b4:8b:50:f9:98:46:
        68:ee:3c:ac:e9:60:9b:bc:26:8d:ef:b0:88:d3:89:ae:3e:c4:
        44:42:5e:7e
-----BEGIN CERTIFICATE-----
MIIDgjCCAmqgAwIBAgIUBufkZMnZSIVuj2DiKOQbbpwM6lMwDQYJKoZIhvcNAQEL
BQAwVDELMAkGA1UEBhMCQVUxEzARBgNVBAgMClNvbWUtU3RhdGUxITAfBgNVBAoM
GEludGVybmV0IFdpZGdpdHMgUHR5IEx0ZDENMAsGA1UEAwwEdGVzdDAgFw0yNDAy
MTgxNzA3MDRaGA8yMjk3MTIwMjE3MDcwNFowUTELMAkGA1UEBhMCQVUxEzARBgNV
BAgMClNvbWUtU3RhdGUxITAfBgNVBAoMGEludGVybmV0IFdpZGdpdHMgUHR5IEx0
ZDEKMAgGA1UEAwwBKjCCASIwDQYJKoZIhvcNAQEBBQADggEPADCCAQoCggEBAMZR
dnDZWEeeY+HrP4q6G8aIdOyDJAc/MejWhY/D8OAlpcJWxlLC8n94rOpgwhVjdcW5
lLkOOjZhlUxwrk73vApkW4H4sfQa9PhA22i0s9Yc4FpmySjC+BA3kfOXijx11ppc
6it95TFrflmFjv95NpnN672J4ZdGJBUfCSwWLSNeDt1nhS0q3DQ9a/cW9a1PyT3U
mJBflGUP8e3WZLrWDtZHwE+sh61Dhbg1Q3RF7bnHm0ksgLWsm9J1nlR8N3sl2mYk
6zsMYPTLpuVCZypLmGhtX/+sNMHx+MjXR+rzKLNsl+4iF4NKU9YyRfaGRvZBdRCH
9rDUMNWQwkjE97emVqkCAwEAAaNNMEswCQYDVR0TBAIwADAdBgNVHQ4EFgQU2rwr
raVdMXH1FRWOv2uVmMNjVJEwHwYDVR0jBBgwFoAU6C1TTT0y+XTsYFrYjX3SoPFx
TrEwDQYJKoZIhvcNAQELBQADggEBAEBC4TTkP+kcfMCfKhCUFX4TkXq7apViMnoa
nO5zP/BkXJW2pzN/4DwKUdI58wopI9M9q988ZP6SFrC1/4Wv/0FdUA+b2e49uT6B
rZgH0P46tJ5hi0qt2zokhZyTYbyyb4vl4YuDivAQuG3NpnuNBh4SEbmuz2m0DOF6
NL2HcBnyDXa8KLMfzmS0yNfg/lQB6+Y6rk5jGwhkdFo4+bKlZI6YwqRRz4mFKtt5
l1ojXNgnLKPXriT5J8tao1pZcKsTRgKO5+2y6l/vKMuicxBNh74uaAmJQtwbF/Zz
2hpBPXY9+q+yirSLUPmYRmjuPKzpYJu8Jo3vsIjTia4+xERCXn4=
-----END CERTIFICATE-----
