Certificate:
    Data:
        Version: 3 (0x2)
        Serial Number: 10052184073940222221 (0x8b808828100bc10d)
    Signature Algorithm: sha256WithRSAEncryption
        Issuer: C=AU, ST=Some-State, O=Internet Widgits Pty Ltd, CN=test root
        Validity
            Not Before: Oct 18 05:18:49 2015 GMT
            Not After : Oct 17 05:18:49 2016 GMT
        Subject: C=AU, ST=Some-State, O=Internet Widgits Pty Ltd, CN=test3
        Subject Public Key Info:
            Public Key Algorithm: rsaEncryption
                Public-Key: (2048 bit)
                Modulus:
                    00:b7:fb:11:f8:bc:71:33:ff:f9:70:5e:16:32:62:
                    2b:94:24:cb:c1:da:0c:52:f1:59:bd:f5:b4:78:66:
                    22:72:f2:b7:6d:33:2e:9b:7a:8a:2e:7c:e5:d8:0d:
                    7f:b2:3d:10:ec:35:f3:fe:c9:df:16:43:11:bc:90:
                    8c:cb:7d:f1:7d:56:e6:d2:1e:65:7f:7e:74:48:b4:
                    e8:da:02:20:54:94:b9:39:31:77:fd:e2:06:c4:5b:
                    4f:30:f5:7c:9f:0c:0c:b2:17:0f:c8:27:7d:ff:4c:
                    23:04:99:57:35:94:51:e2:0f:a8:6f:af:21:99:56:
                    c1:ce:41:25:ae:04:fb:ae:87:92:d2:fd:0e:b6:ad:
                    b4:e7:bb:36:6a:fe:ee:10:ef:5f:cc:83:45:b1:e6:
                    41:55:04:7d:c4:bc:86:e4:cc:65:73:d9:38:14:77:
                    48:b4:94:92:aa:68:bb:ea:90:2a:46:a8:57:ff:a7:
                    54:f7:60:19:98:07:1b:ec:c7:b2:7b:11:32:58:d6:
                    74:84:cd:0d:5d:82:a9:26:95:d5:a9:38:7f:7a:d3:
                    36:b6:2f:55:b5:d9:50:d1:52:a3:da:32:00:4e:05:
                    2b:94:e2:38:4e:ac:4e:14:0b:08:4a:82:a9:3c:ec:
                    f6:3c:fe:11:34:54:02:81:26:a4:bc:4f:2b:51:3b:
                    dc:c3
                Exponent: 65537 (0x10001)
        X509v3 extensions:
            X509v3 Basic Constraints: 
                CA:FALSE
            Netscape Comment: 
                OpenSSL Generated Certificate
            X509v3 Subject Key Identifier: 
                79:5C:E8:66:88:0B:D8:10:84:DA:92:D5:5D:DF:21:93:B4:24:3B:4E
            X509v3 Authority Key Identifier: 
                keyid:79:A3:D1:7D:8A:32:71:2B:E1:F8:9F:0C:39:92:20:63:31:A2:ED:D6

    Signature Algorithm: sha256WithRSAEncryption
         8b:3b:5c:29:98:a2:69:42:39:fa:e9:cf:c5:35:c0:88:05:6d:
         a8:ba:6a:6b:b1:a2:86:fd:9d:bc:9c:af:eb:dc:03:62:38:2c:
         fe:b1:60:85:3a:fa:95:90:c0:6c:d3:1f:a7:42:c0:04:b3:09:
         ca:d3:9b:c7:53:78:d2:66:da:30:f4:ec:39:b8:75:60:39:c9:
         84:78:c7:b4:e8:56:41:8f:cb:4a:f5:6c:5d:1c:f9:78:f9:34:
         ec:f8:0a:2c:f8:3e:4c:0b:66:60:4a:eb:97:90:71:ed:63:e3:
         f3:69:46:8f:8e:9b:1e:b7:55:33:0b:5a:ed:73:6d:bc:24:a0:
         e0:22:e9:0e:ca:b2:8d:54:1a:37:d2:39:8f:05:81:77:8f:0d:
         f0:3f:2a:6c:1a:79:7c:e4:f4:a6:e9:b3:7a:6e:98:cc:cd:43:
         cd:40:7c:c6:60:e2:bf:c3:15:dd:54:fc:62:63:8a:e2:71:29:
         7e:75:2c:ed:1f:f8:8e:2c:93:1f:8a:3e:79:6d:6e:7e:92:2e:
         ce:89:c5:b6:41:ec:d5:f8:90:9b:f9:49:08:e9:4d:c7:21:34:
         8a:fb:d8:2b:63:97:78:18:5a:b8:44:ae:46:49:9f:db:c6:51:
         bd:d1:6e:ee:1f:e2:85:b2:d3:d7:26:03:86:d9:80:3c:b9:81:
         65:aa:e9:1f
-----BEGIN CERTIFICATE-----
MIIDrDCCApSgAwIBAgIJAIuAiCgQC8ENMA0GCSqGSIb3DQEBCwUAMFkxCzAJBgNV
BAYTAkFVMRMwEQYDVQQIDApTb21lLVN0YXRlMSEwHwYDVQQKDBhJbnRlcm5ldCBX
aWRnaXRzIFB0eSBMdGQxEjAQBgNVBAMMCXRlc3Qgcm9vdDAeFw0xNTEwMTgwNTE4
NDlaFw0xNjEwMTcwNTE4NDlaMFUxCzAJBgNVBAYTAkFVMRMwEQYDVQQIDApTb21l
LVN0YXRlMSEwHwYDVQQKDBhJbnRlcm5ldCBXaWRnaXRzIFB0eSBMdGQxDjAMBgNV
BAMMBXRlc3QzMIIBIjANBgkqhkiG9w0BAQEFAAOCAQ8AMIIBCgKCAQEAt/sR+Lxx
M//5cF4WMmIrlCTLwdoMUvFZvfW0eGYicvK3bTMum3qKLnzl2A1/sj0Q7DXz/snf
FkMRvJCMy33xfVbm0h5lf350SLTo2gIgVJS5OTF3/eIGxFtPMPV8nwwMshcPyCd9
/0wjBJlXNZRR4g+ob68hmVbBzkElrgT7roeS0v0Otq2057s2av7uEO9fzINFseZB
VQR9xLyG5Mxlc9k4FHdItJSSqmi76pAqRqhX/6dU92AZmAcb7MeyexEyWNZ0hM0N
XYKpJpXVqTh/etM2ti9VtdlQ0VKj2jIATgUrlOI4TqxOFAsISoKpPOz2PP4RNFQC
gSakvE8rUTvcwwIDAQABo3sweTAJBgNVHRMEAjAAMCwGCWCGSAGG+EIBDQQfFh1P
cGVuU1NMIEdlbmVyYXRlZCBDZXJ0aWZpY2F0ZTAdBgNVHQ4EFgQUeVzoZogL2BCE
2pLVXd8hk7QkO04wHwYDVR0jBBgwFoAUeaPRfYoycSvh+J8MOZIgYzGi7dYwDQYJ
KoZIhvcNAQELBQADggEBAIs7XCmYomlCOfrpz8U1wIgFbai6amuxoob9nbycr+vc
A2I4LP6xYIU6+pWQwGzTH6dCwASzCcrTm8dTeNJm2jD07Dm4dWA5yYR4x7ToVkGP
y0r1bF0c+Xj5NOz4Ciz4PkwLZmBK65eQce1j4/NpRo+Omx63VTMLWu1zbbwkoOAi
6Q7Kso1UGjfSOY8FgXePDfA/KmwaeXzk9Kbps3pumMzNQ81AfMZg4r/DFd1U/GJj
iuJxKX51LO0f+I4skx+KPnltbn6SLs6JxbZB7NX4kJv5SQjpTcchNIr72Ctjl3gY
WrhErkZJn9vGUb3Rbu4f4oWy09cmA4bZgDy5gWWq6R8=
-----END CERTIFICATE-----
