Certificate:
    Data:
        Version: 3 (0x2)
        Serial Number:
            a6:49:54:a6:89:93:53:5f
    Signature Algorithm: sha256WithRSAEncryption
        Issuer: C=AU, ST=Some-State, O=Internet Widgits Pty Ltd, CN=test
        Validity
            Not Before: Nov  2 23:39:03 2018 GMT
            Not After : Oct 30 23:39:03 2028 GMT
        Subject: C=AU, ST=Some-State, O=Internet Widgits Pty Ltd, CN=test
        Subject Public Key Info:
            Public Key Algorithm: rsaEncryption
                Public-Key: (2048 bit)
                Modulus:
                    00:cf:42:13:5a:fc:e9:cd:d9:9e:5a:c9:79:7c:29:
                    b8:7b:a4:53:6d:03:2e:55:eb:de:f7:b6:de:30:76:
                    41:c1:27:52:65:b9:f0:8d:56:02:04:85:d5:b4:cc:
                    db:7f:b9:e2:f0:99:ef:05:ac:5b:cb:16:65:a7:18:
                    c0:86:0f:9b:de:98:fa:d5:46:63:30:6d:d2:91:fe:
                    6d:fb:08:13:f3:08:32:38:7b:c3:a1:3b:c2:4f:ca:
                    b5:31:b1:e0:4d:f0:4f:a0:bf:22:d4:c1:e1:82:27:
                    40:46:c1:0d:ac:c1:28:4d:39:37:5c:a9:64:32:d9:
                    3a:bc:13:b7:a7:7f:95:7f:3b:b3:8f:12:23:03:58:
                    dc:56:05:72:0b:74:55:36:6c:f9:a8:f3:f9:b8:f1:
                    57:81:d1:78:11:d9:3b:63:11:ea:01:40:3e:2a:5a:
                    a2:2e:a4:ea:c7:57:86:b2:aa:9e:5a:63:66:60:ee:
                    a5:04:23:83:d5:48:d9:4b:28:e9:c1:a6:c2:66:fb:
                    c3:5f:89:70:c9:e5:b6:9c:2c:2a:49:e3:8b:a3:f7:
                    a0:5c:38:01:3f:6d:21:5a:8e:a8:38:24:82:22:1f:
                    c2:ec:e6:cc:f2:7c:60:80:bb:8d:4a:72:42:8d:48:
                    6f:0f:c5:bc:25:9e:91:f6:63:63:d5:4e:04:15:fe:
                    d4:c1
                Exponent: 65537 (0x10001)
        X509v3 extensions:
            X509v3 Subject Key Identifier: 
                1F:7A:B8:01:77:75:AD:E0:62:E6:C6:AD:0C:A8:50:33:47:F3:2D:33
            X509v3 Authority Key Identifier: 
                keyid:1F:7A:B8:01:77:75:AD:E0:62:E6:C6:AD:0C:A8:50:33:47:F3:2D:33

            X509v3 Basic Constraints: critical
                CA:TRUE
    Signature Algorithm: sha256WithRSAEncryption
         27:74:1e:29:85:e9:52:92:67:84:ad:3b:9b:f7:10:64:7f:fd:
         f2:54:46:bb:be:3b:89:07:e9:f8:ed:1a:e6:91:56:a5:96:80:
         94:52:fc:90:24:e4:e1:d9:43:6d:69:d0:e3:a3:cc:39:4f:8c:
         5e:70:af:b8:a4:88:87:5b:6e:20:3b:df:52:07:20:f7:43:97:
         ad:7b:42:61:52:86:6e:9b:ac:7c:83:3a:5e:77:f3:75:37:82:
         52:30:55:10:2a:f2:aa:32:c3:48:61:b3:8f:a1:28:2a:77:48:
         03:d6:10:1a:53:ab:9e:47:38:78:10:2b:43:41:90:4c:eb:c4:
         d7:5f:df:d3:92:86:ab:82:d7:25:38:bd:06:6c:ac:2c:c3:97:
         49:af:6d:62:98:44:cb:05:f7:5f:c2:0a:d2:c5:3a:e0:24:3b:
         33:bc:68:08:5b:e5:98:2b:a8:f3:57:c9:49:b5:84:96:d7:4a:
         00:a5:b4:2e:39:a6:59:a5:0d:24:a7:69:31:bd:4b:11:cc:b9:
         80:ae:d4:4a:db:ba:d2:75:f5:c7:0b:61:d9:4f:58:ca:9f:a0:
         a2:7a:37:b9:ac:76:cf:6f:a3:89:b3:35:a2:08:5a:4c:bc:0d:
         6f:77:1c:67:9c:1c:f8:9c:46:9c:22:74:e9:1f:6f:f6:f3:5b:
         d5:61:d3:c9
-----BEGIN CERTIFICATE-----
MIIDfjCCAmagAwIBAgIJAKZJVKaJk1NfMA0GCSqGSIb3DQEBCwUAMFQxCzAJBgNV
BAYTAkFVMRMwEQYDVQQIDApTb21lLVN0YXRlMSEwHwYDVQQKDBhJbnRlcm5ldCBX
aWRnaXRzIFB0eSBMdGQxDTALBgNVBAMMBHRlc3QwHhcNMTgxMTAyMjMzOTAzWhcN
MjgxMDMwMjMzOTAzWjBUMQswCQYDVQQGEwJBVTETMBEGA1UECAwKU29tZS1TdGF0
ZTEhMB8GA1UECgwYSW50ZXJuZXQgV2lkZ2l0cyBQdHkgTHRkMQ0wCwYDVQQDDAR0
ZXN0MIIBIjANBgkqhkiG9w0BAQEFAAOCAQ8AMIIBCgKCAQEAz0ITWvzpzdmeWsl5
fCm4e6RTbQMuVeve97beMHZBwSdSZbnwjVYCBIXVtMzbf7ni8JnvBaxbyxZlpxjA
hg+b3pj61UZjMG3Skf5t+wgT8wgyOHvDoTvCT8q1MbHgTfBPoL8i1MHhgidARsEN
rMEoTTk3XKlkMtk6vBO3p3+VfzuzjxIjA1jcVgVyC3RVNmz5qPP5uPFXgdF4Edk7
YxHqAUA+KlqiLqTqx1eGsqqeWmNmYO6lBCOD1UjZSyjpwabCZvvDX4lwyeW2nCwq
SeOLo/egXDgBP20hWo6oOCSCIh/C7ObM8nxggLuNSnJCjUhvD8W8JZ6R9mNj1U4E
Ff7UwQIDAQABo1MwUTAdBgNVHQ4EFgQUH3q4AXd1reBi5satDKhQM0fzLTMwHwYD
VR0jBBgwFoAUH3q4AXd1reBi5satDKhQM0fzLTMwDwYDVR0TAQH/BAUwAwEB/zAN
BgkqhkiG9w0BAQsFAAOCAQEAJ3QeKYXpUpJnhK07m/cQZH/98lRGu747iQfp+O0a
5pFWpZaAlFL8kCTk4dlDbWnQ46PMOU+MXnCvuKSIh1tuIDvfUgcg90OXrXtCYVKG
bpusfIM6XnfzdTeCUjBVECryqjLDSGGzj6EoKndIA9YQGlOrnkc4eBArQ0GQTOvE
11/f05KGq4LXJTi9BmysLMOXSa9tYphEywX3X8IK0sU64CQ7M7xoCFvlmCuo81fJ
SbWEltdKAKW0LjmmWaUNJKdpMb1LEcy5gK7UStu60nX1xwth2U9Yyp+gono3uax2
z2+jibM1oghaTLwNb3ccZ5wc+JxGnCJ06R9v9vNb1WHTyQ==
-----END CERTIFICATE-----
