Certificate:
    Data:
        Version: 3 (0x2)
        Serial Number: 10052184073940222220 (0x8b808828100bc10c)
    Signature Algorithm: sha256WithRSAEncryption
        Issuer: C=AU, ST=Some-State, O=Internet Widgits Pty Ltd, CN=test root
        Validity
            Not Before: Oct 18 05:18:16 2015 GMT
            Not After : Oct 17 05:18:16 2018 GMT
        Subject: C=AU, ST=Some-State, O=Internet Widgits Pty Ltd, CN=test root
        Subject Public Key Info:
            Public Key Algorithm: rsaEncryption
                Public-Key: (2048 bit)
                Modulus:
                    00:d9:93:d1:b4:a0:b0:6b:c1:a0:9a:1b:43:d0:32:
                    04:b6:87:76:0e:f4:38:d7:e0:f6:8c:00:76:b2:3b:
                    73:06:33:bd:ec:03:cd:d4:7f:9d:12:63:8b:96:ba:
                    2c:58:9d:ac:d4:3b:c0:18:de:c9:27:2f:4b:1a:cd:
                    95:e7:9a:20:e1:4f:55:ae:b9:5b:78:9e:41:27:8d:
                    9f:94:5f:dc:d0:7f:a7:5d:7e:70:70:03:05:98:e5:
                    09:6f:34:79:d7:10:97:94:86:26:41:f9:8e:60:8f:
                    81:3c:63:eb:69:bd:67:9a:fa:47:69:bd:61:3f:e5:
                    c9:07:8a:ea:b4:6c:b5:e6:33:31:d5:23:43:f6:51:
                    42:e8:68:7f:fe:93:3e:8d:85:90:04:e0:e4:0c:64:
                    45:6f:a6:94:38:e0:fd:53:7e:18:52:6c:7e:60:2a:
                    33:6a:99:3b:6c:dd:27:1d:3d:76:70:92:af:d8:f8:
                    36:5c:5f:ab:be:ea:d7:9f:20:74:f6:55:50:02:c1:
                    20:5a:1e:9b:ed:cc:c4:91:c6:69:e3:99:d5:87:6c:
                    83:4e:1f:ed:4f:db:84:c5:7b:97:6f:bc:05:3d:a6:
                    3b:cd:96:3a:a7:6c:f9:65:59:20:d5:df:66:af:c6:
                    3c:e2:06:ba:04:5a:15:86:cf:c2:cc:3b:0c:fe:89:
                    d0:47
                Exponent: 65537 (0x10001)
        X509v3 extensions:
            X509v3 Subject Key Identifier: 
                79:A3:D1:7D:8A:32:71:2B:E1:F8:9F:0C:39:92:20:63:31:A2:ED:D6
            X509v3 Authority Key Identifier: 
                keyid:79:A3:D1:7D:8A:32:71:2B:E1:F8:9F:0C:39:92:20:63:31:A2:ED:D6

            X509v3 Basic Constraints: 
                CA:TRUE
    Signature Algorithm: sha256WithRSAEncryption
         ab:e4:ab:ca:fb:9a:dc:f1:41:43:45:f7:31:41:99:27:23:c2:
         f5:57:23:9a:0b:a8:29:fe:a9:6c:1d:ba:74:84:df:87:45:0f:
         e1:dd:ba:7b:66:67:a7:f8:b9:3e:23:6d:70:69:45:1a:c9:67:
         12:59:83:4f:5d:5a:58:cb:df:a9:b7:71:cf:fc:41:75:f0:9b:
         61:49:81:00:1b:0e:ca:4f:26:ae:00:ae:ae:0a:a4:65:db:29:
         c7:a8:9f:e6:c2:34:d0:b7:30:a0:76:4c:85:83:c4:81:6c:12:
         d4:d8:2a:98:8f:e5:60:59:bb:57:38:da:b4:94:48:05:6c:41:
         51:1f:c3:48:56:ec:e4:c7:87:b6:c5:84:5c:0e:54:aa:e6:85:
         c1:b7:e1:fd:a2:b5:e6:af:06:7b:02:e6:15:c4:fc:a5:6c:29:
         64:96:4e:0d:3e:90:36:fd:cf:4b:aa:47:3b:bc:e6:c7:6e:98:
         e6:97:6e:80:a3:10:75:a5:3f:2a:9b:2f:9e:4b:4f:ad:44:19:
         a4:db:c7:66:f6:28:ed:7d:46:b3:5f:87:70:e4:cd:17:ef:e8:
         2e:8c:49:02:45:84:12:56:44:e0:a9:b1:95:f2:32:7a:38:5e:
         bd:39:57:b9:8a:5c:c8:f6:6b:09:0b:32:16:01:d9:b6:32:8d:
         de:4e:ef:f1
-----BEGIN CERTIFICATE-----
MIIDhTCCAm2gAwIBAgIJAIuAiCgQC8EMMA0GCSqGSIb3DQEBCwUAMFkxCzAJBgNV
BAYTAkFVMRMwEQYDVQQIDApTb21lLVN0YXRlMSEwHwYDVQQKDBhJbnRlcm5ldCBX
aWRnaXRzIFB0eSBMdGQxEjAQBgNVBAMMCXRlc3Qgcm9vdDAeFw0xNTEwMTgwNTE4
MTZaFw0xODEwMTcwNTE4MTZaMFkxCzAJBgNVBAYTAkFVMRMwEQYDVQQIDApTb21l
LVN0YXRlMSEwHwYDVQQKDBhJbnRlcm5ldCBXaWRnaXRzIFB0eSBMdGQxEjAQBgNV
BAMMCXRlc3Qgcm9vdDCCASIwDQYJKoZIhvcNAQEBBQADggEPADCCAQoCggEBANmT
0bSgsGvBoJobQ9AyBLaHdg70ONfg9owAdrI7cwYzvewDzdR/nRJji5a6LFidrNQ7
wBjeyScvSxrNleeaIOFPVa65W3ieQSeNn5Rf3NB/p11+cHADBZjlCW80edcQl5SG
JkH5jmCPgTxj62m9Z5r6R2m9YT/lyQeK6rRsteYzMdUjQ/ZRQuhof/6TPo2FkATg
5AxkRW+mlDjg/VN+GFJsfmAqM2qZO2zdJx09dnCSr9j4Nlxfq77q158gdPZVUALB
IFoem+3MxJHGaeOZ1Ydsg04f7U/bhMV7l2+8BT2mO82WOqds+WVZINXfZq/GPOIG
ugRaFYbPwsw7DP6J0EcCAwEAAaNQME4wHQYDVR0OBBYEFHmj0X2KMnEr4fifDDmS
IGMxou3WMB8GA1UdIwQYMBaAFHmj0X2KMnEr4fifDDmSIGMxou3WMAwGA1UdEwQF
MAMBAf8wDQYJKoZIhvcNAQELBQADggEBAKvkq8r7mtzxQUNF9zFBmScjwvVXI5oL
qCn+qWwdunSE34dFD+HduntmZ6f4uT4jbXBpRRrJZxJZg09dWljL36m3cc/8QXXw
m2FJgQAbDspPJq4Arq4KpGXbKceon+bCNNC3MKB2TIWDxIFsEtTYKpiP5WBZu1c4
2rSUSAVsQVEfw0hW7OTHh7bFhFwOVKrmhcG34f2iteavBnsC5hXE/KVsKWSWTg0+
kDb9z0uqRzu85sdumOaXboCjEHWlPyqbL55LT61EGaTbx2b2KO19RrNfh3DkzRfv
6C6MSQJFhBJWROCpsZXyMno4Xr05V7mKXMj2awkLMhYB2bYyjd5O7/E=
-----END CERTIFICATE-----
