Certificate:
    Data:
        Version: 3 (0x2)
        Serial Number:
            2d:aa:29:0d:f2:c4:b4:7e:00:90:16:61:f8:60:11:2b:2a:0d:bb:3d
        Signature Algorithm: sha256WithRSAEncryption
        Issuer: C=AU, ST=Some-State, O=Internet Widgits Pty Ltd, CN=test
        Validity
            Not Before: Jul  3 11:42:15 2023 GMT
            Not After : Jul  2 11:42:15 2026 GMT
        Subject: C=AU, ST=Some-State, O=Internet Widgits Pty Ltd, CN=test
        Subject Public Key Info:
            Public Key Algorithm: rsaEncryption
                Public-Key: (2048 bit)
                Modulus:
                    00:aa:b5:56:b7:70:da:25:a0:79:fc:28:b3:0b:81:
                    da:a9:4a:a1:26:5f:fa:90:c3:7d:99:6e:3e:f4:5e:
                    7c:cc:3e:9b:34:da:d8:67:e7:c6:97:df:b5:c8:62:
                    1a:ef:bc:f0:aa:58:70:73:65:12:ce:2e:a9:de:1e:
                    4b:e5:bd:6d:46:d5:28:2e:e4:91:ee:7b:fe:b3:37:
                    2d:7c:f9:96:35:3e:f6:7a:36:b5:6d:bd:b4:4c:d3:
                    0d:a6:37:43:89:61:85:1a:f7:30:3b:bf:a6:74:52:
                    3a:cd:00:d5:c8:7e:f2:c2:e4:e6:49:66:00:79:c5:
                    1b:7b:ac:89:02:e0:bd:e1:69:43:34:f4:9d:19:d8:
                    90:98:82:37:77:de:0d:6d:36:92:e4:66:de:80:27:
                    90:45:f6:d6:33:21:3b:b8:6f:f3:47:f1:1c:59:20:
                    c0:b8:df:4f:44:73:4b:a9:e5:ea:3b:b4:14:c2:51:
                    b7:f1:bb:52:12:e6:91:97:06:e9:84:c0:83:65:52:
                    b0:f0:56:24:bb:e5:1e:80:e0:ce:94:3a:14:07:ad:
                    cf:37:75:7b:22:ad:8e:d5:87:28:0d:58:0a:4b:0e:
                    90:37:6d:ec:1f:4d:d2:33:83:94:78:b0:33:8e:f1:
                    71:bd:55:6f:cf:7c:10:21:e7:cf:78:eb:22:4c:a5:
                    e0:9b
                Exponent: 65537 (0x10001)
        X509v3 extensions:
            X509v3 Subject Key Identifier: 
                21:F5:CC:2F:30:24:A3:B7:A9:8D:6E:03:3D:E2:F4:04:9C:FB:1E:74
            X509v3 Authority Key Identifier: 
                21:F5:CC:2F:30:24:A3:B7:A9:8D:6E:03:3D:E2:F4:04:9C:FB:1E:74
            X509v3 Basic Constraints: critical
                CA:TRUE
    Signature Algorithm: sha256WithRSAEncryption
    Signature Value:
        05:2a:96:83:50:21:2b:30:88:67:e0:05:ec:05:7c:f7:53:ec:
        f9:ea:7e:d9:9d:3c:64:dd:d4:b2:36:9b:ab:02:3a:66:f4:db:
        ef:c9:d5:8e:89:88:5b:e3:cf:1b:e1:28:ff:ec:62:66:e5:6b:
        0b:fb:f6:e7:f6:69:0d:88:42:42:cf:d4:0b:75:e0:06:84:cc:
        75:56:18:ff:22:b8:9c:7b:0c:a7:83:c4:f0:60:10:4e:b7:05:
        07:0d:64:fb:e6:42:31:0f:66:f4:e2:fd:3c:74:1f:04:b2:89:
        da:fa:3a:09:38:32:77:75:cf:ba:87:24:5a:e6:bb:b2:5f:f0:
        0a:d4:5f:ea:d1:78:f9:f6:72:a2:f4:05:5c:9c:8b:57:16:8b:
        8d:24:43:7e:e9:0f:5e:ee:3d:ba:c3:9c:d2:ec:2c:f6:2d:69:
        8b:0d:4a:52:cb:9d:0f:88:34:96:f4:ae:6f:c6:8f:8f:f6:fb:
        03:59:d9:18:b1:11:51:2b:4e:b7:c5:95:83:ee:a0:85:ab:ca:
        78:97:19:9e:1c:68:52:7e:3d:ae:44:aa:38:0c:02:b6:41:17:
        43:3c:92:21:6c:b8:4e:1f:ef:71:22:e8:76:d5:ca:59:21:ee:
        ec:88:5d:2c:d8:fb:ec:1e:95:ac:53:72:82:d0:2d:7e:f7:43:
        74:db:1e:27
-----BEGIN CERTIFICATE-----
MIIDiTCCAnGgAwIBAgIULaopDfLEtH4AkBZh+GARKyoNuz0wDQYJKoZIhvcNAQEL
BQAwVDELMAkGA1UEBhMCQVUxEzARBgNVBAgMClNvbWUtU3RhdGUxITAfBgNVBAoM
GEludGVybmV0IFdpZGdpdHMgUHR5IEx0ZDENMAsGA1UEAwwEdGVzdDAeFw0yMzA3
MDMxMTQyMTVaFw0yNjA3MDIxMTQyMTVaMFQxCzAJBgNVBAYTAkFVMRMwEQYDVQQI
DApTb21lLVN0YXRlMSEwHwYDVQQKDBhJbnRlcm5ldCBXaWRnaXRzIFB0eSBMdGQx
DTALBgNVBAMMBHRlc3QwggEiMA0GCSqGSIb3DQEBAQUAA4IBDwAwggEKAoIBAQCq
tVa3cNoloHn8KLMLgdqpSqEmX/qQw32Zbj70XnzMPps02thn58aX37XIYhrvvPCq
WHBzZRLOLqneHkvlvW1G1Sgu5JHue/6zNy18+ZY1PvZ6NrVtvbRM0w2mN0OJYYUa
9zA7v6Z0UjrNANXIfvLC5OZJZgB5xRt7rIkC4L3haUM09J0Z2JCYgjd33g1tNpLk
Zt6AJ5BF9tYzITu4b/NH8RxZIMC4309Ec0up5eo7tBTCUbfxu1IS5pGXBumEwINl
UrDwViS75R6A4M6UOhQHrc83dXsirY7VhygNWApLDpA3bewfTdIzg5R4sDOO8XG9
VW/PfBAh58946yJMpeCbAgMBAAGjUzBRMB0GA1UdDgQWBBQh9cwvMCSjt6mNbgM9
4vQEnPsedDAfBgNVHSMEGDAWgBQh9cwvMCSjt6mNbgM94vQEnPsedDAPBgNVHRMB
Af8EBTADAQH/MA0GCSqGSIb3DQEBCwUAA4IBAQAFKpaDUCErMIhn4AXsBXz3U+z5
6n7ZnTxk3dSyNpurAjpm9NvvydWOiYhb488b4Sj/7GJm5WsL+/bn9mkNiEJCz9QL
deAGhMx1Vhj/Iricewyng8TwYBBOtwUHDWT75kIxD2b04v08dB8Esona+joJODJ3
dc+6hyRa5ruyX/AK1F/q0Xj59nKi9AVcnItXFouNJEN+6Q9e7j26w5zS7Cz2LWmL
DUpSy50PiDSW9K5vxo+P9vsDWdkYsRFRK063xZWD7qCFq8p4lxmeHGhSfj2uRKo4
DAK2QRdDPJIhbLhOH+9xIuh21cpZIe7siF0s2PvsHpWsU3KC0C1+90N02x4n
-----END CERTIFICATE-----
