Certificate:
    Data:
        Version: 3 (0x2)
        Serial Number:
            53:ec:a5:6d:e0:33:0b:3f:1b:64:64:9f:8c:a2:65:7e:c1:9b:c5:c9
        Signature Algorithm: sha256WithRSAEncryption
        Issuer: C=AU, ST=Some-State, O=Internet Widgits Pty Ltd, CN=test
        Validity
            Not Before: Jun 12 13:35:34 2021 GMT
            Not After : Jun 11 13:35:34 2024 GMT
        Subject: C=AU, ST=Some-State, O=Internet Widgits Pty Ltd, CN=test
        Subject Public Key Info:
            Public Key Algorithm: rsaEncryption
                RSA Public-Key: (2048 bit)
                Modulus:
                    00:e7:96:ee:23:b3:24:f0:ea:3d:74:50:df:03:d7:
                    20:6b:30:2f:2a:75:10:6a:c5:ae:23:3e:fa:46:25:
                    7e:24:2c:c0:31:8d:22:69:ca:56:c4:62:bf:1d:d4:
                    7a:27:43:99:e3:6f:73:e5:49:51:f1:5f:b9:a1:11:
                    ef:e7:68:76:53:cb:f3:3d:05:02:1d:79:14:cf:09:
                    6a:79:74:c0:4a:a8:1d:b9:33:34:ca:37:d4:d9:11:
                    bd:80:3a:c5:ed:ba:6f:68:ca:71:d5:b7:28:dd:5a:
                    7e:26:17:7f:3f:a0:db:94:03:e6:90:b9:6e:f5:67:
                    ef:5b:e6:43:a1:e5:a2:df:12:0e:66:d8:4f:eb:a1:
                    75:86:47:c8:bf:17:ba:86:ac:9d:d6:54:dc:2d:fe:
                    7f:09:64:11:7d:62:1f:cc:b7:cd:06:90:0a:eb:6a:
                    bd:e4:fc:1f:a4:6f:62:11:47:df:9a:9f:14:8b:20:
                    32:cf:a2:df:91:b7:f3:7e:37:aa:6c:13:de:a5:8c:
                    00:2e:06:83:85:f8:44:78:f3:9b:58:21:4e:3f:3c:
                    be:f0:53:db:3d:36:4f:c8:69:f0:4f:0a:4e:0a:5e:
                    6f:d9:ec:bb:46:d9:0a:04:d8:8f:eb:4f:4a:97:0f:
                    c6:de:e7:aa:9b:c5:a5:87:18:3c:54:04:11:e6:ee:
                    54:e3
                Exponent: 65537 (0x10001)
        X509v3 extensions:
            X509v3 Subject Key Identifier: 
                AA:B5:9C:D4:9C:C9:0C:A7:C8:55:0C:9E:98:EE:55:03:52:00:D9:08
            X509v3 Authority Key Identifier: 
                keyid:AA:B5:9C:D4:9C:C9:0C:A7:C8:55:0C:9E:98:EE:55:03:52:00:D9:08

            X509v3 Basic Constraints: critical
                CA:TRUE
    Signature Algorithm: sha256WithRSAEncryption
         dd:df:ac:b9:74:18:72:4c:ce:0a:64:ca:83:4a:32:4d:53:dc:
         5e:b6:2e:9f:9e:ff:74:53:2c:fc:4f:55:57:50:6c:06:e2:5e:
         ad:1c:b8:a9:b9:3f:3c:6b:ac:08:bb:65:24:94:3a:5b:07:6e:
         94:49:6b:ad:fa:be:14:c6:4c:01:34:96:14:34:da:2c:0e:78:
         4b:b5:e9:5c:47:1b:e0:3f:14:3f:a6:7b:f7:0c:50:75:79:62:
         0d:dd:6c:04:df:a6:7a:2d:e0:54:06:fd:44:43:97:2f:c3:0e:
         c9:6b:ea:dc:de:d8:0c:da:51:47:79:d0:95:cf:45:86:8a:89:
         4a:18:ac:3f:05:c3:e8:68:c1:70:26:31:b4:ed:fa:80:64:8b:
         8c:fd:fc:a4:88:ad:e6:13:6f:d7:db:b2:4f:dc:2e:69:a0:45:
         92:6b:62:c9:2d:a2:52:4f:32:e2:83:7d:d5:e0:42:35:fc:2b:
         8e:e7:bc:86:51:ce:2b:41:be:57:9d:10:1b:ae:7f:6e:02:20:
         e0:a1:b9:c3:2d:2b:f7:2d:86:37:5c:1f:0c:3b:9f:b4:18:7c:
         cb:ab:67:0c:9e:a0:74:2f:5f:52:e6:54:2d:ac:c1:9c:64:41:
         40:77:63:a8:41:b4:16:54:b9:3e:ad:34:65:e8:77:f7:80:73:
         1e:b8:c7:0c
-----BEGIN CERTIFICATE-----
MIIDiTCCAnGgAwIBAgIUU+ylbeAzCz8bZGSfjKJlfsGbxckwDQYJKoZIhvcNAQEL
BQAwVDELMAkGA1UEBhMCQVUxEzARBgNVBAgMClNvbWUtU3RhdGUxITAfBgNVBAoM
GEludGVybmV0IFdpZGdpdHMgUHR5IEx0ZDENMAsGA1UEAwwEdGVzdDAeFw0yMTA2
MTIxMzM1MzRaFw0yNDA2MTExMzM1MzRaMFQxCzAJBgNVBAYTAkFVMRMwEQYDVQQI
DApTb21lLVN0YXRlMSEwHwYDVQQKDBhJbnRlcm5ldCBXaWRnaXRzIFB0eSBMdGQx
DTALBgNVBAMMBHRlc3QwggEiMA0GCSqGSIb3DQEBAQUAA4IBDwAwggEKAoIBAQDn
lu4jsyTw6j10UN8D1yBrMC8qdRBqxa4jPvpGJX4kLMAxjSJpylbEYr8d1HonQ5nj
b3PlSVHxX7mhEe/naHZTy/M9BQIdeRTPCWp5dMBKqB25MzTKN9TZEb2AOsXtum9o
ynHVtyjdWn4mF38/oNuUA+aQuW71Z+9b5kOh5aLfEg5m2E/roXWGR8i/F7qGrJ3W
VNwt/n8JZBF9Yh/Mt80GkArrar3k/B+kb2IRR9+anxSLIDLPot+Rt/N+N6psE96l
jAAuBoOF+ER485tYIU4/PL7wU9s9Nk/IafBPCk4KXm/Z7LtG2QoE2I/rT0qXD8be
56qbxaWHGDxUBBHm7lTjAgMBAAGjUzBRMB0GA1UdDgQWBBSqtZzUnMkMp8hVDJ6Y
7lUDUgDZCDAfBgNVHSMEGDAWgBSqtZzUnMkMp8hVDJ6Y7lUDUgDZCDAPBgNVHRMB
Af8EBTADAQH/MA0GCSqGSIb3DQEBCwUAA4IBAQDd36y5dBhyTM4KZMqDSjJNU9xe
ti6fnv90Uyz8T1VXUGwG4l6tHLipuT88a6wIu2UklDpbB26USWut+r4UxkwBNJYU
NNosDnhLtelcRxvgPxQ/pnv3DFB1eWIN3WwE36Z6LeBUBv1EQ5cvww7Ja+rc3tgM
2lFHedCVz0WGiolKGKw/BcPoaMFwJjG07fqAZIuM/fykiK3mE2/X27JP3C5poEWS
a2LJLaJSTzLig33V4EI1/CuO57yGUc4rQb5XnRAbrn9uAiDgobnDLSv3LYY3XB8M
O5+0GHzLq2cMnqB0L19S5lQtrMGcZEFAd2OoQbQWVLk+rTRl6Hf3gHMeuMcM
-----END CERTIFICATE-----
