Certificate:
    Data:
        Version: 3 (0x2)
        Serial Number:
            06:e7:e4:64:c9:d9:48:85:6e:8f:60:e2:28:e4:1b:6e:9c:0c:ea:52
        Signature Algorithm: sha256WithRSAEncryption
        Issuer: C=AU, ST=Some-State, O=Internet Widgits Pty Ltd, CN=test
        Validity
            Not Before: Feb 18 17:06:58 2024 GMT
            Not After : Dec  2 17:06:58 2297 GMT
        Subject: C=AU, ST=Some-State, O=Internet Widgits Pty Ltd, CN=test
        Subject Public Key Info:
            Public Key Algorithm: rsaEncryption
                Public-Key: (2048 bit)
                Modulus:
                    00:aa:3b:15:49:5d:1f:12:73:17:ec:f8:e1:35:2c:
                    f1:72:c7:b8:0a:68:43:44:0c:43:e0:dc:ea:cb:60:
                    28:0b:00:6d:f9:4c:a1:90:8b:95:9d:50:87:9d:a9:
                    3f:30:3f:e5:58:4e:7c:34:03:4e:ae:16:6f:d3:44:
                    21:1f:39:25:b1:7b:88:b6:30:64:47:b8:5c:cd:da:
                    de:b0:5d:67:2b:8a:45:12:63:9b:40:5d:73:cd:ce:
                    4e:c8:5f:11:e7:8b:f2:f1:b0:27:85:3e:d2:51:67:
                    92:02:72:79:a4:89:ac:d5:8a:69:cd:9a:f7:a3:28:
                    ab:27:f0:60:55:cb:e9:71:5f:71:2a:dc:9f:de:85:
                    a0:77:0a:ea:dd:bf:9d:6e:43:b8:9d:df:7b:06:47:
                    0f:3d:49:1d:7e:bc:47:90:1f:4d:ca:74:34:f8:af:
                    c2:e7:a4:fd:48:9b:7e:c0:ce:03:36:7a:ba:79:59:
                    1f:e6:a1:a0:48:6a:94:39:0c:00:cb:d1:4d:71:dd:
                    d2:6e:2f:36:71:4d:98:c7:1e:2d:03:81:95:2f:f7:
                    84:31:cd:a6:08:5b:1d:96:c7:3c:01:92:4f:33:e9:
                    1e:13:a7:64:c2:f4:94:54:d7:d7:e3:6c:0c:45:dc:
                    02:b2:1e:ff:19:f1:75:07:50:42:25:b7:06:ef:c1:
                    ac:df
                Exponent: 65537 (0x10001)
        X509v3 extensions:
            X509v3 Subject Key Identifier: 
                E8:2D:53:4D:3D:32:F9:74:EC:60:5A:D8:8D:7D:D2:A0:F1:71:4E:B1
            X509v3 Authority Key Identifier: 
                E8:2D:53:4D:3D:32:F9:74:EC:60:5A:D8:8D:7D:D2:A0:F1:71:4E:B1
            X509v3 Basic Constraints: critical
                CA:TRUE
    Signature Algorithm: sha256WithRSAEncryption
    Signature Value:
        74:2e:95:7c:65:c9:25:7c:e7:24:67:c6:28:f4:30:3d:58:71:
        02:c8:64:ec:52:79:9b:6e:1e:d9:57:7b:c0:58:5f:d5:b1:b4:
        79:33:da:fb:7e:8a:7b:44:63:05:d8:d0:bb:bb:75:be:a3:a7:
        7e:64:f4:cb:ad:1e:a6:12:ab:dc:c3:4d:80:10:df:38:c4:bc:
        17:6c:fc:52:96:c5:9b:6c:23:47:59:d1:2d:5c:2c:91:b1:c0:
        f1:27:8f:8a:5e:23:64:fe:f3:9e:f6:96:0f:c5:f5:7c:e2:4c:
        6f:8e:2d:76:4f:84:9e:3e:38:c0:81:d9:f0:e2:d4:24:cd:d8:
        5f:d0:aa:f5:ac:b6:f2:c6:00:f4:61:96:b3:bb:92:30:1f:93:
        da:ee:b6:e2:64:8f:57:5a:7b:ff:03:33:64:55:7e:f9:f5:c3:
        b4:bc:93:96:9b:13:b5:d9:56:56:38:56:15:06:07:3c:13:a7:
        7d:e6:c3:06:43:de:d6:4a:1b:6d:69:69:e3:29:7b:ec:5f:c7:
        e5:cd:71:90:ab:5c:1d:95:87:ae:03:44:6b:68:91:ab:ab:7b:
        65:a0:5e:23:52:85:ea:6d:7c:42:aa:f0:e7:69:e1:f7:0e:e3:
        9e:38:3e:6e:0e:95:2f:37:36:09:a5:d7:97:c1:ed:9e:c4:93:
        7f:7d:02:7a
-----BEGIN CERTIFICATE-----
MIIDizCCAnOgAwIBAgIUBufkZMnZSIVuj2DiKOQbbpwM6lIwDQYJKoZIhvcNAQEL
BQAwVDELMAkGA1UEBhMCQVUxEzARBgNVBAgMClNvbWUtU3RhdGUxITAfBgNVBAoM
GEludGVybmV0IFdpZGdpdHMgUHR5IEx0ZDENMAsGA1UEAwwEdGVzdDAgFw0yNDAy
MTgxNzA2NThaGA8yMjk3MTIwMjE3MDY1OFowVDELMAkGA1UEBhMCQVUxEzARBgNV
BAgMClNvbWUtU3RhdGUxITAfBgNVBAoMGEludGVybmV0IFdpZGdpdHMgUHR5IEx0
ZDENMAsGA1UEAwwEdGVzdDCCASIwDQYJKoZIhvcNAQEBBQADggEPADCCAQoCggEB
AKo7FUldHxJzF+z44TUs8XLHuApoQ0QMQ+Dc6stgKAsAbflMoZCLlZ1Qh52pPzA/
5VhOfDQDTq4Wb9NEIR85JbF7iLYwZEe4XM3a3rBdZyuKRRJjm0Bdc83OTshfEeeL
8vGwJ4U+0lFnkgJyeaSJrNWKac2a96MoqyfwYFXL6XFfcSrcn96FoHcK6t2/nW5D
uJ3fewZHDz1JHX68R5AfTcp0NPivwuek/UibfsDOAzZ6unlZH+ahoEhqlDkMAMvR
TXHd0m4vNnFNmMceLQOBlS/3hDHNpghbHZbHPAGSTzPpHhOnZML0lFTX1+NsDEXc
ArIe/xnxdQdQQiW3Bu/BrN8CAwEAAaNTMFEwHQYDVR0OBBYEFOgtU009Mvl07GBa
2I190qDxcU6xMB8GA1UdIwQYMBaAFOgtU009Mvl07GBa2I190qDxcU6xMA8GA1Ud
EwEB/wQFMAMBAf8wDQYJKoZIhvcNAQELBQADggEBAHQulXxlySV85yRnxij0MD1Y
cQLIZOxSeZtuHtlXe8BYX9WxtHkz2vt+intEYwXY0Lu7db6jp35k9MutHqYSq9zD
TYAQ3zjEvBds/FKWxZtsI0dZ0S1cLJGxwPEnj4peI2T+8572lg/F9XziTG+OLXZP
hJ4+OMCB2fDi1CTN2F/QqvWstvLGAPRhlrO7kjAfk9rutuJkj1dae/8DM2RVfvn1
w7S8k5abE7XZVlY4VhUGBzwTp33mwwZD3tZKG21paeMpe+xfx+XNcZCrXB2Vh64D
RGtokaure2WgXiNSheptfEKq8Odp4fcO4544Pm4OlS83Ngml15fB7Z7Ek399Ano=
-----END CERTIFICATE-----
