Certificate:
    Data:
        Version: 3 (0x2)
        Serial Number:
            fb:31:10:62:a9:61:e5:45
    Signature Algorithm: sha256WithRSAEncryption
        Issuer: C=AU, ST=Some-State, O=Internet Widgits Pty Ltd, CN=test
        Validity
            Not Before: Oct 27 22:18:33 2016 GMT
            Not After : Oct 27 22:18:33 2019 GMT
        Subject: C=AU, ST=Some-State, O=Internet Widgits Pty Ltd, CN=test
        Subject Public Key Info:
            Public Key Algorithm: rsaEncryption
                Public-Key: (2048 bit)
                Modulus:
                    00:cd:4a:c7:e0:6a:f6:92:7b:0d:dd:7f:81:4e:95:
                    0b:73:2c:5a:f2:36:d0:49:b9:05:6b:36:18:6c:cd:
                    99:c6:e8:ce:5e:e3:53:18:21:82:fe:1a:dd:dd:13:
                    58:63:0d:45:06:b6:4d:80:4b:ff:f0:45:9d:d7:51:
                    a7:2b:34:96:b5:2b:32:5c:f7:7e:83:1c:4b:ec:88:
                    8e:a3:c7:98:77:87:80:83:42:b6:55:ee:f4:ec:b9:
                    76:0b:2f:70:e8:67:2a:ee:19:a6:21:42:8e:98:00:
                    29:67:f1:7b:99:b8:9b:98:8b:19:4f:9e:45:0f:e9:
                    59:9c:6f:d1:d9:cf:d2:9c:ef:43:5b:72:db:5f:36:
                    44:fb:be:b6:f7:e6:35:12:79:c4:79:8e:71:fb:46:
                    1a:79:a8:9e:ee:2f:cd:c6:24:31:c8:1f:6f:99:fa:
                    fb:9a:c8:0d:6c:5b:58:b2:b9:ab:03:3e:74:72:56:
                    6c:81:08:67:2c:da:c9:dc:16:59:cc:b0:a1:fa:ea:
                    53:42:93:61:25:91:1b:4c:0c:c6:96:57:be:01:65:
                    35:95:fd:e6:65:a1:2d:da:ba:f3:0a:d9:5c:5d:a3:
                    05:9e:d1:bd:41:1b:fe:4e:99:85:10:17:e4:14:68:
                    3d:90:27:06:c8:71:3a:b9:8e:40:06:5a:cd:56:38:
                    6e:4d
                Exponent: 65537 (0x10001)
        X509v3 extensions:
            X509v3 Subject Key Identifier: 
                6F:8B:50:9F:3F:E8:2B:49:F9:6E:2A:4C:16:3E:12:35:2A:90:33:8C
            X509v3 Authority Key Identifier: 
                keyid:6F:8B:50:9F:3F:E8:2B:49:F9:6E:2A:4C:16:3E:12:35:2A:90:33:8C

            X509v3 Basic Constraints: 
                CA:TRUE
    Signature Algorithm: sha256WithRSAEncryption
         a8:ae:26:90:38:b2:d5:e0:4a:f5:d4:ee:f4:cc:fa:02:f7:df:
         87:1f:62:1d:06:3a:e6:58:dc:47:6a:f9:f9:d3:aa:0b:4c:1b:
         2f:30:08:27:31:73:90:d7:4b:3d:31:c8:28:4a:30:7b:8f:59:
         f6:ec:03:fb:7c:9b:39:01:4b:91:38:58:89:64:d9:a1:de:50:
         ac:0c:70:04:23:57:9b:6d:83:30:8a:eb:2e:3e:8a:34:45:3a:
         f1:19:b6:0d:66:cd:d7:3b:49:04:6d:a2:6d:4c:6e:30:1e:38:
         f6:4f:8e:5c:05:48:83:02:3e:27:ce:8a:60:2a:36:45:db:e2:
         68:3d:33:3d:9c:ac:11:04:2e:e4:1e:97:9d:13:62:65:13:fd:
         3d:29:62:96:01:d4:d2:8d:ab:43:82:08:93:1a:bc:b7:9a:41:
         ae:92:63:39:78:18:c6:6e:0d:41:a5:cf:30:98:c6:30:d4:73:
         09:6b:c0:7b:42:ee:05:5a:2a:99:4e:09:7a:89:da:2e:40:1c:
         1e:09:f3:b6:e4:8d:c1:06:6d:27:a0:85:63:f0:d5:30:c3:20:
         f2:5b:8b:4f:13:ba:f8:05:2f:fe:b8:f4:0b:75:34:02:1d:2f:
         a8:e8:e8:62:da:d4:fe:f1:d4:6d:9d:63:4a:92:d8:08:20:2a:
         92:82:f1:86
-----BEGIN CERTIFICATE-----
MIIDezCCAmOgAwIBAgIJAPsxEGKpYeVFMA0GCSqGSIb3DQEBCwUAMFQxCzAJBgNV
BAYTAkFVMRMwEQYDVQQIDApTb21lLVN0YXRlMSEwHwYDVQQKDBhJbnRlcm5ldCBX
aWRnaXRzIFB0eSBMdGQxDTALBgNVBAMMBHRlc3QwHhcNMTYxMDI3MjIxODMzWhcN
MTkxMDI3MjIxODMzWjBUMQswCQYDVQQGEwJBVTETMBEGA1UECAwKU29tZS1TdGF0
ZTEhMB8GA1UECgwYSW50ZXJuZXQgV2lkZ2l0cyBQdHkgTHRkMQ0wCwYDVQQDDAR0
ZXN0MIIBIjANBgkqhkiG9w0BAQEFAAOCAQ8AMIIBCgKCAQEAzUrH4Gr2knsN3X+B
TpULcyxa8jbQSbkFazYYbM2ZxujOXuNTGCGC/hrd3RNYYw1FBrZNgEv/8EWd11Gn
KzSWtSsyXPd+gxxL7IiOo8eYd4eAg0K2Ve707Ll2Cy9w6Gcq7hmmIUKOmAApZ/F7
mbibmIsZT55FD+lZnG/R2c/SnO9DW3LbXzZE+7629+Y1EnnEeY5x+0Yaeaie7i/N
xiQxyB9vmfr7msgNbFtYsrmrAz50clZsgQhnLNrJ3BZZzLCh+upTQpNhJZEbTAzG
lle+AWU1lf3mZaEt2rrzCtlcXaMFntG9QRv+TpmFEBfkFGg9kCcGyHE6uY5ABlrN
VjhuTQIDAQABo1AwTjAdBgNVHQ4EFgQUb4tQnz/oK0n5bipMFj4SNSqQM4wwHwYD
VR0jBBgwFoAUb4tQnz/oK0n5bipMFj4SNSqQM4wwDAYDVR0TBAUwAwEB/zANBgkq
hkiG9w0BAQsFAAOCAQEAqK4mkDiy1eBK9dTu9Mz6Avffhx9iHQY65ljcR2r5+dOq
C0wbLzAIJzFzkNdLPTHIKEowe49Z9uwD+3ybOQFLkThYiWTZod5QrAxwBCNXm22D
MIrrLj6KNEU68Rm2DWbN1ztJBG2ibUxuMB449k+OXAVIgwI+J86KYCo2RdviaD0z
PZysEQQu5B6XnRNiZRP9PSlilgHU0o2rQ4IIkxq8t5pBrpJjOXgYxm4NQaXPMJjG
MNRzCWvAe0LuBVoqmU4JeonaLkAcHgnztuSNwQZtJ6CFY/DVMMMg8luLTxO6+AUv
/rj0C3U0Ah0vqOjoYtrU/vHUbZ1jSpLYCCAqkoLxhg==
-----END CERTIFICATE-----
