Certificate:
    Data:
        Version: 3 (0x2)
        Serial Number: 14871306350806521255 (0xce617e55a1d555a7)
    Signature Algorithm: sha256WithRSAEncryption
        Issuer: C=AU, ST=Some-State, O=Internet Widgits Pty Ltd, CN=test
        Validity
            Not Before: Oct 25 14:26:15 2015 GMT
            Not After : Oct 24 14:26:15 2018 GMT
        Subject: C=AU, ST=Some-State, O=Internet Widgits Pty Ltd, CN=test
        Subject Public Key Info:
            Public Key Algorithm: rsaEncryption
                Public-Key: (2048 bit)
                Modulus:
                    00:da:91:e4:7b:3a:2b:d5:3c:38:0c:d8:80:cd:59:
                    f0:35:d7:23:af:7c:47:d2:d3:d1:07:0e:d3:43:89:
                    3e:35:07:b6:70:6e:60:f8:6a:e3:13:d0:d3:85:0a:
                    d4:94:77:0b:85:32:1a:87:cb:99:29:d5:82:86:9f:
                    8b:be:84:fa:c0:d6:f6:1e:43:a9:a8:7b:36:53:00:
                    a6:61:4c:7a:9f:9e:6e:d0:8c:1f:94:3c:73:59:36:
                    ec:a2:b6:2f:9f:47:8c:de:29:6b:b3:39:9e:c9:37:
                    e0:38:85:b8:db:fb:a3:28:4e:8d:44:5e:90:bc:c4:
                    01:99:9c:df:02:2a:97:97:0d:11:58:c5:71:58:b9:
                    d6:25:f9:20:e8:66:d6:ae:1a:09:84:32:0f:3b:a4:
                    66:ea:4d:a4:eb:e9:c0:95:a5:78:c1:91:23:68:16:
                    ca:5e:7f:99:b6:89:7f:11:07:4f:78:9a:17:5a:92:
                    5a:16:79:ff:22:16:a2:53:5e:4a:50:54:46:d5:ec:
                    81:64:66:08:c3:0a:31:c2:15:52:8a:90:71:8b:31:
                    a9:da:4e:f7:be:7f:36:9a:26:ae:31:81:fb:f1:26:
                    00:96:9c:ff:a0:be:5f:51:e6:74:00:8e:7b:cd:c5:
                    de:b1:cf:1b:e9:52:e4:03:d9:e9:c3:f5:64:12:49:
                    16:93
                Exponent: 65537 (0x10001)
        X509v3 extensions:
            X509v3 Subject Key Identifier: 
                B9:1E:30:D4:EF:99:61:92:54:65:0F:73:12:47:29:AF:2F:07:B9:52
            X509v3 Authority Key Identifier: 
                keyid:B9:1E:30:D4:EF:99:61:92:54:65:0F:73:12:47:29:AF:2F:07:B9:52

            X509v3 Basic Constraints: 
                CA:TRUE
    Signature Algorithm: sha256WithRSAEncryption
         36:36:81:22:56:55:b8:a6:98:d8:5f:d0:93:96:f9:00:b2:8e:
         42:62:09:7a:d9:9d:d2:cd:25:6d:89:8a:56:01:c7:44:b2:11:
         68:e0:93:06:e4:58:ed:6e:0a:b5:7e:93:bb:26:02:00:64:a6:
         48:8f:30:4e:9b:78:ef:5f:8a:92:2f:23:6c:5f:4d:9f:0f:2c:
         47:82:93:e7:cc:51:a0:25:9b:a1:b4:25:85:01:72:18:96:55:
         db:cc:c1:c9:eb:67:5e:a6:ba:fd:bc:44:20:36:b8:67:5d:91:
         ab:02:66:1d:a9:47:df:ae:49:4d:de:24:aa:88:de:18:85:24:
         63:7f:1e:7e:2b:34:af:f4:05:cc:e6:0d:eb:b6:f7:19:58:d3:
         ff:28:22:36:24:5a:7b:5f:6b:e4:79:44:d2:2a:24:0b:67:31:
         cd:a6:a1:72:fc:7a:a5:b1:af:fd:c3:9e:8c:7f:c0:02:91:73:
         ab:dd:27:d1:33:54:c7:61:5f:ac:cc:db:e9:c9:af:fa:02:dd:
         47:06:45:c9:78:8b:46:9a:20:58:56:5b:b9:b2:59:da:61:3e:
         6b:28:af:e4:4c:7c:22:e6:a6:66:ee:c2:bb:02:b3:8a:81:dc:
         fc:23:0c:68:7b:5a:02:85:49:ea:03:b5:0c:ab:ae:c7:fd:d5:
         b5:87:42:0f
-----BEGIN CERTIFICATE-----
MIIDezCCAmOgAwIBAgIJAM5hflWh1VWnMA0GCSqGSIb3DQEBCwUAMFQxCzAJBgNV
BAYTAkFVMRMwEQYDVQQIDApTb21lLVN0YXRlMSEwHwYDVQQKDBhJbnRlcm5ldCBX
aWRnaXRzIFB0eSBMdGQxDTALBgNVBAMMBHRlc3QwHhcNMTUxMDI1MTQyNjE1WhcN
MTgxMDI0MTQyNjE1WjBUMQswCQYDVQQGEwJBVTETMBEGA1UECAwKU29tZS1TdGF0
ZTEhMB8GA1UECgwYSW50ZXJuZXQgV2lkZ2l0cyBQdHkgTHRkMQ0wCwYDVQQDDAR0
ZXN0MIIBIjANBgkqhkiG9w0BAQEFAAOCAQ8AMIIBCgKCAQEA2pHkezor1Tw4DNiA
zVnwNdcjr3xH0tPRBw7TQ4k+NQe2cG5g+GrjE9DThQrUlHcLhTIah8uZKdWChp+L
voT6wNb2HkOpqHs2UwCmYUx6n55u0IwflDxzWTbsorYvn0eM3ilrszmeyTfgOIW4
2/ujKE6NRF6QvMQBmZzfAiqXlw0RWMVxWLnWJfkg6GbWrhoJhDIPO6Rm6k2k6+nA
laV4wZEjaBbKXn+Ztol/EQdPeJoXWpJaFnn/IhaiU15KUFRG1eyBZGYIwwoxwhVS
ipBxizGp2k73vn82miauMYH78SYAlpz/oL5fUeZ0AI57zcXesc8b6VLkA9npw/Vk
EkkWkwIDAQABo1AwTjAdBgNVHQ4EFgQUuR4w1O+ZYZJUZQ9zEkcpry8HuVIwHwYD
VR0jBBgwFoAUuR4w1O+ZYZJUZQ9zEkcpry8HuVIwDAYDVR0TBAUwAwEB/zANBgkq
hkiG9w0BAQsFAAOCAQEANjaBIlZVuKaY2F/Qk5b5ALKOQmIJetmd0s0lbYmKVgHH
RLIRaOCTBuRY7W4KtX6TuyYCAGSmSI8wTpt471+Kki8jbF9Nnw8sR4KT58xRoCWb
obQlhQFyGJZV28zByetnXqa6/bxEIDa4Z12RqwJmHalH365JTd4kqojeGIUkY38e
fis0r/QFzOYN67b3GVjT/ygiNiRae19r5HlE0iokC2cxzaahcvx6pbGv/cOejH/A
ApFzq90n0TNUx2FfrMzb6cmv+gLdRwZFyXiLRpogWFZbubJZ2mE+ayiv5Ex8Iuam
Zu7CuwKzioHc/CMMaHtaAoVJ6gO1DKuux/3VtYdCDw==
-----END CERTIFICATE-----
