Certificate:
    Data:
        Version: 3 (0x2)
        Serial Number:
            77:43:23:01:98:f8:32:24:72:c9:71:f2:86:1e:e3:3e:59:b8:d3:32
        Signature Algorithm: sha256WithRSAEncryption
        Issuer: C=AU, ST=Some-State, O=Internet Widgits Pty Ltd, CN=test
        Validity
            Not Before: Nov  3 12:57:48 2019 GMT
            Not After : Nov  2 12:57:48 2022 GMT
        Subject: C=AU, ST=Some-State, O=Internet Widgits Pty Ltd, CN=test
        Subject Public Key Info:
            Public Key Algorithm: rsaEncryption
                RSA Public-Key: (2048 bit)
                Modulus:
                    00:d7:7b:d2:33:b4:e1:17:8b:21:c6:ac:37:0d:24:
                    60:f5:36:bd:3d:79:cc:91:19:69:97:24:a8:8e:b0:
                    f4:87:45:50:d4:31:cb:18:a7:00:b9:30:fe:c3:5e:
                    ec:f8:f8:41:70:b2:41:bc:58:fd:98:52:46:93:4b:
                    94:f8:ad:27:d5:da:75:dd:1a:fe:2e:2f:01:3f:27:
                    18:fa:64:c6:f7:ef:ec:90:5a:55:72:7b:7f:0f:0f:
                    66:4a:84:1e:55:da:68:77:d3:11:64:ca:bc:47:fe:
                    6a:35:a5:4a:be:aa:53:fd:d6:7b:75:b6:a2:13:aa:
                    d2:84:e7:9b:7f:bc:9a:5f:b4:0f:a9:7e:7b:30:cb:
                    26:9f:3f:23:49:1e:c5:d6:4e:a6:06:f7:b9:5e:6a:
                    46:9b:a4:bd:36:50:03:5f:f0:f6:42:29:82:8f:21:
                    41:af:6f:91:b4:c4:de:f8:e7:2e:1d:45:66:f5:35:
                    7d:0e:9f:23:23:e0:7c:64:0f:c9:5d:f6:28:9e:7d:
                    ff:0d:8c:e3:ef:83:1a:69:bf:b8:45:e6:49:79:3e:
                    a0:d3:10:98:cd:69:00:93:4c:92:62:f7:17:5e:f7:
                    78:5c:df:89:04:8d:92:42:bc:a6:13:c0:b8:5b:4b:
                    8a:a9:54:56:13:6a:53:c1:4e:00:3e:ee:37:2b:19:
                    72:b1
                Exponent: 65537 (0x10001)
        X509v3 extensions:
            X509v3 Subject Key Identifier: 
                F0:EA:C4:93:7C:DA:4E:3A:D6:4F:FD:F0:0B:60:B8:B4:3C:FB:BA:2B
            X509v3 Authority Key Identifier: 
                keyid:F0:EA:C4:93:7C:DA:4E:3A:D6:4F:FD:F0:0B:60:B8:B4:3C:FB:BA:2B

            X509v3 Basic Constraints: critical
                CA:TRUE
    Signature Algorithm: sha256WithRSAEncryption
         71:c7:fe:5b:63:dd:b6:33:a1:02:63:0c:28:c0:1f:d1:96:16:
         5b:1a:82:15:e4:79:3a:23:b2:5d:69:70:75:3d:55:29:20:19:
         d1:f9:6c:36:e1:e2:23:22:f6:94:70:14:4c:87:cc:10:e1:22:
         65:ef:39:ab:c9:49:9b:c7:c7:25:07:61:5f:43:bf:bf:cd:4d:
         e6:c0:09:c9:d2:0c:98:e8:c8:37:bb:f7:0e:95:1b:f7:53:63:
         61:1b:cb:a6:f2:a5:2d:21:bf:dc:09:ff:9e:01:d6:02:7a:a4:
         06:9b:b0:66:21:55:1c:9f:26:7a:ac:24:c0:85:b7:24:f1:47:
         93:65:a4:b3:bc:a1:56:19:82:ff:75:06:52:25:b3:a0:cb:9e:
         2b:29:e1:c7:88:4f:a4:23:8b:9f:51:1d:4c:1c:96:1d:15:f1:
         60:c3:98:0b:bb:72:0b:86:a1:37:4a:61:9f:02:50:7b:f2:a4:
         ba:33:8b:89:c4:67:3c:40:65:97:0e:62:26:e6:b8:3f:37:53:
         df:72:1e:9b:09:88:5a:bd:97:d4:bc:d2:6f:07:7d:00:d1:08:
         53:bc:46:b5:aa:e1:a9:a1:8b:8a:b5:f2:aa:d7:42:58:c9:cc:
         54:ea:0d:6b:12:78:3b:33:74:b8:5a:90:d0:24:54:ac:b2:7e:
         60:e2:db:fb
-----BEGIN CERTIFICATE-----
MIIDiTCCAnGgAwIBAgIUd0MjAZj4MiRyyXHyhh7jPlm40zIwDQYJKoZIhvcNAQEL
BQAwVDELMAkGA1UEBhMCQVUxEzARBgNVBAgMClNvbWUtU3RhdGUxITAfBgNVBAoM
GEludGVybmV0IFdpZGdpdHMgUHR5IEx0ZDENMAsGA1UEAwwEdGVzdDAeFw0xOTEx
MDMxMjU3NDhaFw0yMjExMDIxMjU3NDhaMFQxCzAJBgNVBAYTAkFVMRMwEQYDVQQI
DApTb21lLVN0YXRlMSEwHwYDVQQKDBhJbnRlcm5ldCBXaWRnaXRzIFB0eSBMdGQx
DTALBgNVBAMMBHRlc3QwggEiMA0GCSqGSIb3DQEBAQUAA4IBDwAwggEKAoIBAQDX
e9IztOEXiyHGrDcNJGD1Nr09ecyRGWmXJKiOsPSHRVDUMcsYpwC5MP7DXuz4+EFw
skG8WP2YUkaTS5T4rSfV2nXdGv4uLwE/Jxj6ZMb37+yQWlVye38PD2ZKhB5V2mh3
0xFkyrxH/mo1pUq+qlP91nt1tqITqtKE55t/vJpftA+pfnswyyafPyNJHsXWTqYG
97leakabpL02UANf8PZCKYKPIUGvb5G0xN745y4dRWb1NX0OnyMj4HxkD8ld9iie
ff8NjOPvgxppv7hF5kl5PqDTEJjNaQCTTJJi9xde93hc34kEjZJCvKYTwLhbS4qp
VFYTalPBTgA+7jcrGXKxAgMBAAGjUzBRMB0GA1UdDgQWBBTw6sSTfNpOOtZP/fAL
YLi0PPu6KzAfBgNVHSMEGDAWgBTw6sSTfNpOOtZP/fALYLi0PPu6KzAPBgNVHRMB
Af8EBTADAQH/MA0GCSqGSIb3DQEBCwUAA4IBAQBxx/5bY922M6ECYwwowB/RlhZb
GoIV5Hk6I7JdaXB1PVUpIBnR+Ww24eIjIvaUcBRMh8wQ4SJl7zmryUmbx8clB2Ff
Q7+/zU3mwAnJ0gyY6Mg3u/cOlRv3U2NhG8um8qUtIb/cCf+eAdYCeqQGm7BmIVUc
nyZ6rCTAhbck8UeTZaSzvKFWGYL/dQZSJbOgy54rKeHHiE+kI4ufUR1MHJYdFfFg
w5gLu3ILhqE3SmGfAlB78qS6M4uJxGc8QGWXDmIm5rg/N1Pfch6bCYhavZfUvNJv
B30A0QhTvEa1quGpoYuKtfKq10JYycxU6g1rEng7M3S4WpDQJFSssn5g4tv7
-----END CERTIFICATE-----
