Certificate:
    Data:
        Version: 3 (0x2)
        Serial Number:
            3a:2b:93:c5:cb:28:93:bc:9d:57:e3:11:35:21:a2:a9:ac:63:34:4d
        Signature Algorithm: sha256WithRSAEncryption
        Issuer: C=AU, ST=Some-State, O=Internet Widgits Pty Ltd, CN=test
        Validity
            Not Before: Jan 27 11:11:31 2025 GMT
            Not After : Nov 11 11:11:31 2298 GMT
        Subject: C=AU, ST=Some-State, O=Internet Widgits Pty Ltd, CN=test
        Subject Public Key Info:
            Public Key Algorithm: rsaEncryption
                Public-Key: (2048 bit)
                Modulus:
                    00:90:8b:ce:5a:9e:2f:e1:f3:36:5a:60:a6:ea:ab:
                    cd:0b:2c:57:b1:78:2b:cf:aa:05:f2:c3:96:28:d4:
                    00:39:ed:bd:97:76:44:a3:88:08:1b:b6:a6:50:89:
                    cb:4e:5d:f4:93:c2:ec:0a:19:e8:45:cc:36:28:4d:
                    c5:ee:9b:a3:8e:22:40:bf:33:94:9f:c4:b0:af:fb:
                    c6:6a:83:3a:86:73:e5:8a:d3:a4:20:f5:c0:a6:af:
                    3d:0a:cc:55:48:a4:99:6b:c6:4e:d7:f8:63:7b:e7:
                    17:29:f2:19:6d:a8:18:3f:09:78:bd:6d:b5:7a:9c:
                    21:31:c9:81:aa:3c:a6:e6:04:f0:3a:ca:29:e5:d3:
                    ea:22:7a:7f:fc:53:29:6c:d3:bc:50:e4:5b:63:a8:
                    bf:8e:83:e0:ff:fa:b6:b1:d4:61:0a:d8:8f:22:f8:
                    bc:df:fb:5f:ba:7c:7b:9d:b0:d9:1c:05:6f:cd:9b:
                    c5:c4:d8:f8:49:ee:5d:67:cb:97:c9:1b:bb:07:38:
                    90:a0:83:6d:48:ad:b1:6c:dc:3c:c0:25:b0:d3:9c:
                    0b:78:69:73:94:9a:7a:7c:ba:76:45:3a:f8:b7:6e:
                    f3:ef:0a:21:77:c8:fd:c6:97:73:b4:d6:16:67:d9:
                    a0:4f:1d:fd:bf:4a:09:38:17:58:a6:7a:1c:f1:f3:
                    34:eb
                Exponent: 65537 (0x10001)
        X509v3 extensions:
            X509v3 Subject Key Identifier: 
                48:FC:8B:AD:85:55:56:D1:E8:F8:53:C2:73:61:27:ED:11:CD:64:67
            X509v3 Authority Key Identifier: 
                48:FC:8B:AD:85:55:56:D1:E8:F8:53:C2:73:61:27:ED:11:CD:64:67
            X509v3 Basic Constraints: critical
                CA:TRUE
    Signature Algorithm: sha256WithRSAEncryption
    Signature Value:
        07:bd:6a:10:a7:db:bd:d1:7f:71:a4:fe:c3:f9:ad:ac:b2:f5:
        7a:1f:2f:52:3f:cc:64:0d:9d:29:60:b9:c6:a1:d7:f7:54:4c:
        04:d0:65:42:aa:6f:2d:f0:31:b3:4c:22:10:f5:04:71:61:c4:
        89:5e:fe:08:bb:c3:6d:8f:e8:24:9c:8a:03:19:7f:8b:97:02:
        1a:e5:98:b4:f9:d4:e0:f3:2b:12:fe:5f:89:d1:87:a7:2f:b8:
        65:50:e0:92:9a:64:78:18:d1:c2:66:4d:a1:e7:d6:f7:82:84:
        81:82:bc:79:6f:de:a6:cb:67:73:51:15:f1:98:52:e5:90:03:
        f7:0c:9c:d9:15:68:e0:40:97:5c:8f:59:5e:0a:b6:74:a5:be:
        dc:4c:8d:5f:2d:5d:73:59:76:77:36:e9:3f:50:ad:83:c5:9d:
        32:fa:88:56:b1:10:5c:93:45:3f:f1:f9:dc:34:13:94:7c:0b:
        ca:fe:57:0e:61:ff:ad:a6:e8:6f:a5:a2:a7:11:aa:2c:c0:9d:
        fa:14:ac:11:c1:6c:9c:66:ef:d8:3b:40:6d:bd:67:33:27:f3:
        15:15:c9:34:58:2a:76:e2:12:0e:87:52:a7:b9:de:27:e9:06:
        d9:be:5f:d8:b1:c8:2d:e8:54:db:87:67:4a:da:9b:e0:46:17:
        b3:8b:fd:11
-----BEGIN CERTIFICATE-----
MIIDizCCAnOgAwIBAgIUOiuTxcsok7ydV+MRNSGiqaxjNE0wDQYJKoZIhvcNAQEL
BQAwVDELMAkGA1UEBhMCQVUxEzARBgNVBAgMClNvbWUtU3RhdGUxITAfBgNVBAoM
GEludGVybmV0IFdpZGdpdHMgUHR5IEx0ZDENMAsGA1UEAwwEdGVzdDAgFw0yNTAx
MjcxMTExMzFaGA8yMjk4MTExMTExMTEzMVowVDELMAkGA1UEBhMCQVUxEzARBgNV
BAgMClNvbWUtU3RhdGUxITAfBgNVBAoMGEludGVybmV0IFdpZGdpdHMgUHR5IEx0
ZDENMAsGA1UEAwwEdGVzdDCCASIwDQYJKoZIhvcNAQEBBQADggEPADCCAQoCggEB
AJCLzlqeL+HzNlpgpuqrzQssV7F4K8+qBfLDlijUADntvZd2RKOICBu2plCJy05d
9JPC7AoZ6EXMNihNxe6bo44iQL8zlJ/EsK/7xmqDOoZz5YrTpCD1wKavPQrMVUik
mWvGTtf4Y3vnFynyGW2oGD8JeL1ttXqcITHJgao8puYE8DrKKeXT6iJ6f/xTKWzT
vFDkW2Oov46D4P/6trHUYQrYjyL4vN/7X7p8e52w2RwFb82bxcTY+EnuXWfLl8kb
uwc4kKCDbUitsWzcPMAlsNOcC3hpc5Saeny6dkU6+Ldu8+8KIXfI/caXc7TWFmfZ
oE8d/b9KCTgXWKZ6HPHzNOsCAwEAAaNTMFEwHQYDVR0OBBYEFEj8i62FVVbR6PhT
wnNhJ+0RzWRnMB8GA1UdIwQYMBaAFEj8i62FVVbR6PhTwnNhJ+0RzWRnMA8GA1Ud
EwEB/wQFMAMBAf8wDQYJKoZIhvcNAQELBQADggEBAAe9ahCn273Rf3Gk/sP5rayy
9XofL1I/zGQNnSlgucah1/dUTATQZUKqby3wMbNMIhD1BHFhxIle/gi7w22P6CSc
igMZf4uXAhrlmLT51ODzKxL+X4nRh6cvuGVQ4JKaZHgY0cJmTaHn1veChIGCvHlv
3qbLZ3NRFfGYUuWQA/cMnNkVaOBAl1yPWV4KtnSlvtxMjV8tXXNZdnc26T9QrYPF
nTL6iFaxEFyTRT/x+dw0E5R8C8r+Vw5h/62m6G+loqcRqizAnfoUrBHBbJxm79g7
QG29ZzMn8xUVyTRYKnbiEg6HUqe53ifpBtm+X9ixyC3oVNuHZ0ram+BGF7OL/RE=
-----END CERTIFICATE-----
