Certificate:
    Data:
        Version: 3 (0x2)
        Serial Number:
            2a:3b:39:ec:ad:1b:1c:d7:e1:c2:4b:2c:ab:35:5c:3e:1b:5a:33:c9
        Signature Algorithm: sha256WithRSAEncryption
        Issuer: C=AU, ST=Some-State, O=Internet Widgits Pty Ltd, CN=test
        Validity
            Not Before: Jun 11 09:20:10 2020 GMT
            Not After : Jun 11 09:20:10 2023 GMT
        Subject: C=AU, ST=Some-State, O=Internet Widgits Pty Ltd, CN=test
        Subject Public Key Info:
            Public Key Algorithm: rsaEncryption
                RSA Public-Key: (2048 bit)
                Modulus:
                    00:9b:75:16:48:ff:5e:c2:d1:f6:cc:db:a4:24:d7:
                    e6:98:97:e5:3c:b8:4d:8c:f3:c6:41:79:fc:3f:e9:
                    b8:63:a9:a1:f6:f4:e6:10:ee:15:44:d7:65:bc:3e:
                    22:9e:84:cc:00:86:e0:08:6f:fd:98:1f:6b:9d:e1:
                    e4:ee:4a:ee:08:7a:fb:bb:65:01:d6:33:97:3c:8f:
                    a1:a2:3b:10:88:b9:66:b0:ec:ab:bd:aa:9e:84:7d:
                    e3:a0:a7:c7:dc:03:70:52:a6:1c:04:cd:9e:e4:27:
                    f8:2a:39:99:f6:1c:73:87:ca:31:32:c7:c6:65:ad:
                    1d:94:77:f8:6a:89:1b:af:5f:d8:e5:cd:7b:9f:80:
                    17:4a:72:b1:f9:2b:89:1b:df:52:85:7e:57:6a:37:
                    e7:b7:5b:4b:c8:c6:d4:d4:ca:85:ab:0c:0f:53:01:
                    89:2e:bc:24:d5:a3:e9:28:3b:7f:b0:4c:dd:53:35:
                    a6:8c:4c:e1:00:47:e1:1e:2c:ad:e1:c7:85:18:46:
                    1e:83:64:c7:45:71:64:31:9e:cd:34:e3:41:6e:a8:
                    b7:9d:52:6a:ba:51:30:21:d3:c4:f2:a3:9a:d1:09:
                    2b:81:32:ef:c2:a0:b6:68:c9:43:93:b3:44:59:0e:
                    42:6c:04:79:97:b8:b6:33:3c:34:56:f8:e5:8e:38:
                    98:15
                Exponent: 65537 (0x10001)
        X509v3 extensions:
            X509v3 Subject Key Identifier: 
                48:61:63:44:F6:1D:B2:0C:3D:C9:9F:0E:50:A0:53:46:53:C1:B0:76
            X509v3 Authority Key Identifier: 
                keyid:48:61:63:44:F6:1D:B2:0C:3D:C9:9F:0E:50:A0:53:46:53:C1:B0:76

            X509v3 Basic Constraints: critical
                CA:TRUE
    Signature Algorithm: sha256WithRSAEncryption
         13:76:0c:18:d2:b7:d8:95:a1:4a:da:8f:8d:fb:92:8d:0a:d8:
         d3:6e:98:97:85:0b:29:fc:94:0f:75:71:b3:98:cf:19:a7:11:
         c3:19:7b:07:bd:52:1f:58:f2:36:39:f8:f1:6f:a9:ac:f2:88:
         37:98:5d:ad:f8:bc:46:72:f1:aa:93:0c:92:e4:80:54:5e:ac:
         20:3c:f7:56:3a:a3:75:c5:5c:1e:0a:da:5c:55:4c:32:84:10:
         ab:a2:b9:db:66:f0:48:74:c6:f5:69:da:f8:b3:52:e3:76:db:
         38:fc:14:65:db:20:af:b6:08:bd:c5:db:60:d4:dd:f2:bd:3a:
         31:24:7c:fc:3b:3a:ed:43:16:69:59:48:0a:d8:ad:d4:0f:dd:
         8d:97:8e:50:0c:7b:60:4e:91:7a:52:87:c9:19:72:3d:6f:62:
         18:45:a2:7c:26:bb:25:0f:81:9c:d7:55:08:18:d0:7e:6b:0e:
         9c:86:4b:51:ce:0e:56:40:ac:d9:6e:4f:84:ca:7b:03:07:cf:
         bd:8a:86:0a:a3:85:b0:f0:2d:ac:c4:4e:d7:92:09:15:a3:0d:
         62:77:25:8d:c1:f2:56:de:06:95:e3:7b:2c:57:b7:3c:ef:98:
         dc:78:16:c1:95:75:b1:98:1f:4e:d8:30:c3:4c:4c:bb:ed:ed:
         b0:3e:ae:f3
-----BEGIN CERTIFICATE-----
MIIDiTCCAnGgAwIBAgIUKjs57K0bHNfhwkssqzVcPhtaM8kwDQYJKoZIhvcNAQEL
BQAwVDELMAkGA1UEBhMCQVUxEzARBgNVBAgMClNvbWUtU3RhdGUxITAfBgNVBAoM
GEludGVybmV0IFdpZGdpdHMgUHR5IEx0ZDENMAsGA1UEAwwEdGVzdDAeFw0yMDA2
MTEwOTIwMTBaFw0yMzA2MTEwOTIwMTBaMFQxCzAJBgNVBAYTAkFVMRMwEQYDVQQI
DApTb21lLVN0YXRlMSEwHwYDVQQKDBhJbnRlcm5ldCBXaWRnaXRzIFB0eSBMdGQx
DTALBgNVBAMMBHRlc3QwggEiMA0GCSqGSIb3DQEBAQUAA4IBDwAwggEKAoIBAQCb
dRZI/17C0fbM26Qk1+aYl+U8uE2M88ZBefw/6bhjqaH29OYQ7hVE12W8PiKehMwA
huAIb/2YH2ud4eTuSu4Ievu7ZQHWM5c8j6GiOxCIuWaw7Ku9qp6EfeOgp8fcA3BS
phwEzZ7kJ/gqOZn2HHOHyjEyx8ZlrR2Ud/hqiRuvX9jlzXufgBdKcrH5K4kb31KF
fldqN+e3W0vIxtTUyoWrDA9TAYkuvCTVo+koO3+wTN1TNaaMTOEAR+EeLK3hx4UY
Rh6DZMdFcWQxns0040FuqLedUmq6UTAh08Tyo5rRCSuBMu/CoLZoyUOTs0RZDkJs
BHmXuLYzPDRW+OWOOJgVAgMBAAGjUzBRMB0GA1UdDgQWBBRIYWNE9h2yDD3Jnw5Q
oFNGU8GwdjAfBgNVHSMEGDAWgBRIYWNE9h2yDD3Jnw5QoFNGU8GwdjAPBgNVHRMB
Af8EBTADAQH/MA0GCSqGSIb3DQEBCwUAA4IBAQATdgwY0rfYlaFK2o+N+5KNCtjT
bpiXhQsp/JQPdXGzmM8ZpxHDGXsHvVIfWPI2Ofjxb6ms8og3mF2t+LxGcvGqkwyS
5IBUXqwgPPdWOqN1xVweCtpcVUwyhBCrornbZvBIdMb1adr4s1Ljdts4/BRl2yCv
tgi9xdtg1N3yvToxJHz8OzrtQxZpWUgK2K3UD92Nl45QDHtgTpF6UofJGXI9b2IY
RaJ8JrslD4Gc11UIGNB+aw6chktRzg5WQKzZbk+EynsDB8+9ioYKo4Ww8C2sxE7X
kgkVow1idyWNwfJW3gaV43ssV7c875jceBbBlXWxmB9O2DDDTEy77e2wPq7z
-----END CERTIFICATE-----
