Certificate:
    Data:
        Version: 3 (0x2)
        Serial Number: 16401505873524892478 (0xe39ddab16cef233e)
    Signature Algorithm: sha1WithRSAEncryption
        Issuer: C=AU, ST=Some-State, O=Internet Widgits Pty Ltd, CN=test
        Validity
            Not Before: Nov  1 14:17:41 2017 GMT
            Not After : Oct 31 14:17:41 2020 GMT
        Subject: C=AU, ST=Some-State, O=Internet Widgits Pty Ltd, CN=test
        Subject Public Key Info:
            Public Key Algorithm: rsaEncryption
                Public-Key: (2048 bit)
                Modulus:
                    00:c4:73:fa:40:3b:53:9f:86:ce:98:96:01:cd:10:
                    2d:82:bb:9e:94:f8:76:7d:cf:f5:32:c5:77:08:72:
                    35:89:ca:6b:e4:b0:13:50:98:25:78:ba:f0:f8:30:
                    3e:8f:04:3f:fa:9e:68:ec:4f:ab:63:04:4a:0d:1d:
                    54:c0:82:03:de:ec:7d:cf:f8:ef:23:82:61:09:26:
                    13:cf:6d:9b:a5:2b:e2:2e:34:f7:2b:5c:56:1b:20:
                    e5:bb:23:fc:10:7a:27:0b:a3:0b:59:90:2d:a5:19:
                    e5:05:2e:39:78:49:34:19:91:d0:3e:23:9c:32:5c:
                    5f:a8:29:fd:2d:38:b7:ee:a7:e3:c2:5e:6d:d4:e3:
                    07:b9:39:f1:00:f2:57:b8:38:d1:e6:d8:10:28:22:
                    df:3f:8d:af:85:26:b5:ce:c8:d3:5e:7a:d7:46:5e:
                    19:a2:f7:17:44:21:d3:91:f8:46:26:b7:1d:55:e6:
                    e6:8a:6e:86:aa:1e:56:75:22:df:9b:43:65:42:3b:
                    5a:96:0f:f8:54:55:19:00:b5:57:04:25:c5:4b:cf:
                    db:8b:e6:52:3e:59:a6:ae:43:52:9a:70:d5:f8:2d:
                    5a:43:07:c6:ee:39:4b:46:0b:0e:45:a5:b7:dd:69:
                    e8:2e:71:9f:05:7c:6a:1d:85:8f:a5:f6:aa:a2:cb:
                    65:c3
                Exponent: 65537 (0x10001)
        X509v3 extensions:
            X509v3 Subject Key Identifier: 
                74:98:02:FA:11:B6:2A:BD:53:F4:64:92:85:8E:BF:1C:64:86:00:AF
            X509v3 Authority Key Identifier: 
                keyid:74:98:02:FA:11:B6:2A:BD:53:F4:64:92:85:8E:BF:1C:64:86:00:AF

            X509v3 Basic Constraints: 
                CA:TRUE
    Signature Algorithm: sha1WithRSAEncryption
         7c:41:90:e9:74:9a:ba:32:da:27:27:1d:fc:49:56:30:70:f1:
         96:14:46:a6:a7:b6:0f:0a:04:9e:d5:0f:3a:4d:c0:14:33:92:
         5f:db:d6:26:e8:8f:97:0b:50:16:c1:2d:c5:8a:79:99:b6:52:
         41:98:8a:10:9f:39:38:50:1f:10:c5:cc:5e:4f:90:43:a3:8e:
         74:71:9d:2d:f6:3f:d7:88:f4:fb:1a:01:3e:aa:ea:e5:52:c1:
         23:d1:e9:3b:1c:17:4c:62:ff:72:27:8c:eb:a1:c5:ba:1d:eb:
         96:c0:4a:b3:dd:6b:67:d0:6f:37:1c:11:a8:aa:25:5e:af:87:
         9e:c2:29:6c:83:5d:13:a0:1c:46:8c:0a:83:f6:cc:02:3c:d4:
         d3:ca:3c:11:8f:96:26:56:19:57:4f:0a:98:5c:4a:b8:10:b7:
         a5:7f:2c:38:e0:f3:d4:68:31:de:53:47:36:21:f1:86:6d:8d:
         07:d2:cf:58:a8:96:a3:03:52:1b:fb:24:0b:17:28:da:20:06:
         4f:ca:52:76:23:f3:81:c6:e9:32:08:bc:f3:05:ce:1c:5d:f1:
         c9:80:7c:68:f0:f6:eb:4c:8f:b6:30:88:53:5c:01:92:f4:64:
         4c:9b:0a:13:ab:1e:7f:82:6a:f1:92:e0:84:66:2e:87:fb:f9:
         6d:a9:cf:a0
-----BEGIN CERTIFICATE-----
MIIDezCCAmOgAwIBAgIJAOOd2rFs7yM+MA0GCSqGSIb3DQEBBQUAMFQxCzAJBgNV
BAYTAkFVMRMwEQYDVQQIDApTb21lLVN0YXRlMSEwHwYDVQQKDBhJbnRlcm5ldCBX
aWRnaXRzIFB0eSBMdGQxDTALBgNVBAMMBHRlc3QwHhcNMTcxMTAxMTQxNzQxWhcN
MjAxMDMxMTQxNzQxWjBUMQswCQYDVQQGEwJBVTETMBEGA1UECAwKU29tZS1TdGF0
ZTEhMB8GA1UECgwYSW50ZXJuZXQgV2lkZ2l0cyBQdHkgTHRkMQ0wCwYDVQQDDAR0
ZXN0MIIBIjANBgkqhkiG9w0BAQEFAAOCAQ8AMIIBCgKCAQEAxHP6QDtTn4bOmJYB
zRAtgruelPh2fc/1MsV3CHI1icpr5LATUJgleLrw+DA+jwQ/+p5o7E+rYwRKDR1U
wIID3ux9z/jvI4JhCSYTz22bpSviLjT3K1xWGyDluyP8EHonC6MLWZAtpRnlBS45
eEk0GZHQPiOcMlxfqCn9LTi37qfjwl5t1OMHuTnxAPJXuDjR5tgQKCLfP42vhSa1
zsjTXnrXRl4ZovcXRCHTkfhGJrcdVebmim6Gqh5WdSLfm0NlQjtalg/4VFUZALVX
BCXFS8/bi+ZSPlmmrkNSmnDV+C1aQwfG7jlLRgsORaW33WnoLnGfBXxqHYWPpfaq
ostlwwIDAQABo1AwTjAdBgNVHQ4EFgQUdJgC+hG2Kr1T9GSShY6/HGSGAK8wHwYD
VR0jBBgwFoAUdJgC+hG2Kr1T9GSShY6/HGSGAK8wDAYDVR0TBAUwAwEB/zANBgkq
hkiG9w0BAQUFAAOCAQEAfEGQ6XSaujLaJycd/ElWMHDxlhRGpqe2DwoEntUPOk3A
FDOSX9vWJuiPlwtQFsEtxYp5mbZSQZiKEJ85OFAfEMXMXk+QQ6OOdHGdLfY/14j0
+xoBPqrq5VLBI9HpOxwXTGL/cieM66HFuh3rlsBKs91rZ9BvNxwRqKolXq+HnsIp
bINdE6AcRowKg/bMAjzU08o8EY+WJlYZV08KmFxKuBC3pX8sOODz1Ggx3lNHNiHx
hm2NB9LPWKiWowNSG/skCxco2iAGT8pSdiPzgcbpMgi88wXOHF3xyYB8aPD260yP
tjCIU1wBkvRkTJsKE6sef4Jq8ZLghGYuh/v5banPoA==
-----END CERTIFICATE-----
