Certificate:
    Data:
        Version: 3 (0x2)
        Serial Number:
            43:6f:28:43:34:d0:47:6c:74:fa:23:42:47:b0:af:13:73:0e:1b:12
        Signature Algorithm: sha256WithRSAEncryption
        Issuer: C=AU, ST=Some-State, O=Internet Widgits Pty Ltd, CN=test
        Validity
            Not Before: Jun 14 10:54:23 2022 GMT
            Not After : Jun 13 10:54:23 2025 GMT
        Subject: C=AU, ST=Some-State, O=Internet Widgits Pty Ltd, CN=test
        Subject Public Key Info:
            Public Key Algorithm: rsaEncryption
                Public-Key: (2048 bit)
                Modulus:
                    00:a9:c4:bc:dc:b0:0a:53:09:e3:4b:85:1d:37:6f:
                    16:73:93:3f:74:ca:45:2d:bd:f8:93:c9:f3:fe:a2:
                    1f:b3:f9:e8:1a:ab:43:03:5a:5d:14:8b:ea:8f:1a:
                    5f:d7:56:0a:2c:15:0a:c9:70:54:23:8b:d3:68:4e:
                    f5:3b:be:48:06:0f:c4:68:9d:ba:53:bb:72:1e:f0:
                    92:c5:80:4f:e5:14:8a:12:38:4e:69:e3:65:99:d4:
                    f4:69:2d:f9:86:f5:07:8f:3b:9c:d7:11:26:96:e7:
                    19:9b:98:80:1c:74:96:6b:1f:69:fc:34:bd:f5:58:
                    4c:68:d0:78:86:47:a4:a7:48:02:88:3c:31:55:c1:
                    e5:cf:97:3f:55:d8:f1:d0:85:e0:86:f4:a7:86:bb:
                    99:16:7e:bc:ba:db:b7:49:08:be:c1:05:d2:5d:46:
                    28:ee:66:c9:42:82:5f:4d:0e:3d:18:c9:2a:02:17:
                    4f:30:01:12:19:f0:0b:45:c6:df:0e:6b:62:23:d8:
                    c5:28:4a:84:33:29:13:0b:3b:20:d5:98:d5:08:cb:
                    bb:0f:c3:f4:cb:d9:30:b3:40:0a:1c:c8:a9:45:1f:
                    5d:3a:93:38:8e:80:04:54:f8:ef:98:53:6c:86:b1:
                    bf:6a:1a:53:c1:b1:40:f5:2e:30:f4:3d:4c:e5:19:
                    b6:13
                Exponent: 65537 (0x10001)
        X509v3 extensions:
            X509v3 Subject Key Identifier: 
                90:74:F2:7B:0D:0F:62:6C:DD:37:ED:A0:2B:AF:D7:3C:FC:EA:F3:9D
            X509v3 Authority Key Identifier: 
                90:74:F2:7B:0D:0F:62:6C:DD:37:ED:A0:2B:AF:D7:3C:FC:EA:F3:9D
            X509v3 Basic Constraints: critical
                CA:TRUE
    Signature Algorithm: sha256WithRSAEncryption
    Signature Value:
        16:81:df:d2:85:73:03:62:0c:af:a3:1a:be:fa:32:9f:1a:f3:
        89:5f:d6:e6:3f:87:b9:11:f2:c1:1c:4e:eb:ca:3e:61:41:f3:
        8f:af:02:c4:f6:31:ed:58:a4:62:26:aa:fc:47:38:0a:76:ed:
        44:d0:2d:8c:9a:d1:b4:ae:b3:12:f6:d0:06:59:c0:92:21:da:
        57:a6:bd:59:ae:64:db:cf:a8:43:20:a1:b0:17:1d:96:9a:5f:
        57:0b:9d:50:1e:9f:99:6c:c0:94:94:68:5f:9c:7a:f7:a6:67:
        dc:f2:46:9d:bb:98:f3:91:8a:33:5c:97:62:3a:6d:ea:96:d9:
        91:82:93:cf:92:70:39:21:5a:96:a9:4d:81:94:2e:ef:bc:ed:
        31:ec:ef:74:cd:0d:33:d6:6a:79:e7:93:40:7c:27:ab:4a:ff:
        a8:4c:13:a1:96:6b:7a:65:b5:2a:1e:17:94:c3:2a:8f:ba:09:
        bd:67:60:ec:3f:3b:b9:6e:fb:12:70:f4:c6:be:59:40:81:9b:
        07:19:f3:54:df:bc:2d:c5:1e:d4:a9:b7:db:d9:27:ad:45:90:
        62:91:99:95:31:d6:64:80:86:a0:76:ae:86:0e:59:68:26:72:
        58:fd:c5:ed:14:fa:4e:c8:94:f5:46:07:ae:62:55:b4:e8:6c:
        c9:1f:8d:15
-----BEGIN CERTIFICATE-----
MIIDiTCCAnGgAwIBAgIUQ28oQzTQR2x0+iNCR7CvE3MOGxIwDQYJKoZIhvcNAQEL
BQAwVDELMAkGA1UEBhMCQVUxEzARBgNVBAgMClNvbWUtU3RhdGUxITAfBgNVBAoM
GEludGVybmV0IFdpZGdpdHMgUHR5IEx0ZDENMAsGA1UEAwwEdGVzdDAeFw0yMjA2
MTQxMDU0MjNaFw0yNTA2MTMxMDU0MjNaMFQxCzAJBgNVBAYTAkFVMRMwEQYDVQQI
DApTb21lLVN0YXRlMSEwHwYDVQQKDBhJbnRlcm5ldCBXaWRnaXRzIFB0eSBMdGQx
DTALBgNVBAMMBHRlc3QwggEiMA0GCSqGSIb3DQEBAQUAA4IBDwAwggEKAoIBAQCp
xLzcsApTCeNLhR03bxZzkz90ykUtvfiTyfP+oh+z+egaq0MDWl0Ui+qPGl/XVgos
FQrJcFQji9NoTvU7vkgGD8RonbpTu3Ie8JLFgE/lFIoSOE5p42WZ1PRpLfmG9QeP
O5zXESaW5xmbmIAcdJZrH2n8NL31WExo0HiGR6SnSAKIPDFVweXPlz9V2PHQheCG
9KeGu5kWfry627dJCL7BBdJdRijuZslCgl9NDj0YySoCF08wARIZ8AtFxt8Oa2Ij
2MUoSoQzKRMLOyDVmNUIy7sPw/TL2TCzQAocyKlFH106kziOgARU+O+YU2yGsb9q
GlPBsUD1LjD0PUzlGbYTAgMBAAGjUzBRMB0GA1UdDgQWBBSQdPJ7DQ9ibN037aAr
r9c8/OrznTAfBgNVHSMEGDAWgBSQdPJ7DQ9ibN037aArr9c8/OrznTAPBgNVHRMB
Af8EBTADAQH/MA0GCSqGSIb3DQEBCwUAA4IBAQAWgd/ShXMDYgyvoxq++jKfGvOJ
X9bmP4e5EfLBHE7ryj5hQfOPrwLE9jHtWKRiJqr8RzgKdu1E0C2MmtG0rrMS9tAG
WcCSIdpXpr1ZrmTbz6hDIKGwFx2Wml9XC51QHp+ZbMCUlGhfnHr3pmfc8kadu5jz
kYozXJdiOm3qltmRgpPPknA5IVqWqU2BlC7vvO0x7O90zQ0z1mp555NAfCerSv+o
TBOhlmt6ZbUqHheUwyqPugm9Z2DsPzu5bvsScPTGvllAgZsHGfNU37wtxR7Uqbfb
2SetRZBikZmVMdZkgIagdq6GDlloJnJY/cXtFPpOyJT1RgeuYlW06GzJH40V
-----END CERTIFICATE-----
