Certificate:
    Data:
        Version: 3 (0x2)
        Serial Number: 14962439509416331833 (0xcfa543759c07ca39)
    Signature Algorithm: sha1WithRSAEncryption
        Issuer: C=AU, ST=Some-State, O=Internet Widgits Pty Ltd, CN=test root
        Validity
            Not Before: Oct  7 08:41:33 2014 GMT
            Not After : Oct  7 08:41:33 2015 GMT
        Subject: C=AU, ST=Some-State, O=Internet Widgits Pty Ltd, CN=*
        Subject Public Key Info:
            Public Key Algorithm: rsaEncryption
                Public-Key: (1024 bit)
                Modulus:
                    00:b0:84:78:9f:a4:ea:6e:b4:a8:27:e8:c1:07:1b:
                    dd:6d:44:bf:bb:c1:2d:cf:4e:94:1e:ba:e4:f1:f8:
                    98:bc:42:95:4b:54:aa:bb:11:87:3b:43:cd:23:b0:
                    e2:ca:e6:ee:d4:2e:5a:13:e2:ec:65:ff:18:d2:0f:
                    93:ac:69:75:e6:1c:34:41:d6:09:2c:b9:fa:99:3e:
                    04:04:0e:46:b6:14:93:78:7d:d8:9d:2f:87:a5:32:
                    42:1d:6e:91:d8:23:d8:94:0b:65:0f:91:11:58:b7:
                    45:90:62:b2:a1:d1:22:55:35:5b:dc:d0:3c:e4:42:
                    ab:9d:26:49:04:66:4c:8d:5f
                Exponent: 65537 (0x10001)
        X509v3 extensions:
            X509v3 Basic Constraints: 
                CA:FALSE
            Netscape Comment: 
                OpenSSL Generated Certificate
            X509v3 Subject Key Identifier: 
                68:14:57:1C:27:2B:CB:45:7F:F9:96:AD:A9:99:EF:BC:4D:9F:A5:CB
            X509v3 Authority Key Identifier: 
                keyid:EA:38:2C:12:62:53:49:BB:87:39:32:FC:29:86:3C:B9:A1:1B:D7:79

    Signature Algorithm: sha1WithRSAEncryption
         9d:5f:92:42:21:79:e4:19:5d:3f:25:65:3f:95:72:92:7a:21:
         62:0b:c3:e8:a4:47:b8:7f:f8:f9:e9:f2:ee:fb:cc:f9:2e:00:
         e2:24:39:11:91:20:20:52:9f:19:64:43:0c:9a:05:e9:77:88:
         5e:7e:07:99:cd:4b:cd:93:34:7c:10:6d:35:f6:5c:c7:5c:af:
         60:dc:91:09:d8:27:13:38:25:00:ec:50:f3:07:db:31:0a:e2:
         a2:2c:0f:df:8a:db:ee:0d:c7:15:c8:bb:2b:93:12:99:7e:25:
         49:17:28:10:83:7a:93:2b:98:2f:ea:21:54:32:e2:d9:b6:ca:
         2f:10
-----BEGIN CERTIFICATE-----
MIICozCCAgygAwIBAgIJAM+lQ3WcB8o5MA0GCSqGSIb3DQEBBQUAMFkxCzAJBgNV
BAYTAkFVMRMwEQYDVQQIDApTb21lLVN0YXRlMSEwHwYDVQQKDBhJbnRlcm5ldCBX
aWRnaXRzIFB0eSBMdGQxEjAQBgNVBAMMCXRlc3Qgcm9vdDAeFw0xNDEwMDcwODQx
MzNaFw0xNTEwMDcwODQxMzNaMFExCzAJBgNVBAYTAkFVMRMwEQYDVQQIDApTb21l
LVN0YXRlMSEwHwYDVQQKDBhJbnRlcm5ldCBXaWRnaXRzIFB0eSBMdGQxCjAIBgNV
BAMMASowgZ8wDQYJKoZIhvcNAQEBBQADgY0AMIGJAoGBALCEeJ+k6m60qCfowQcb
3W1Ev7vBLc9OlB665PH4mLxClUtUqrsRhztDzSOw4srm7tQuWhPi7GX/GNIPk6xp
deYcNEHWCSy5+pk+BAQORrYUk3h92J0vh6UyQh1ukdgj2JQLZQ+REVi3RZBisqHR
IlU1W9zQPORCq50mSQRmTI1fAgMBAAGjezB5MAkGA1UdEwQCMAAwLAYJYIZIAYb4
QgENBB8WHU9wZW5TU0wgR2VuZXJhdGVkIENlcnRpZmljYXRlMB0GA1UdDgQWBBRo
FFccJyvLRX/5lq2pme+8TZ+lyzAfBgNVHSMEGDAWgBTqOCwSYlNJu4c5Mvwphjy5
oRvXeTANBgkqhkiG9w0BAQUFAAOBgQCdX5JCIXnkGV0/JWU/lXKSeiFiC8PopEe4
f/j56fLu+8z5LgDiJDkRkSAgUp8ZZEMMmgXpd4hefgeZzUvNkzR8EG019lzHXK9g
3JEJ2CcTOCUA7FDzB9sxCuKiLA/fitvuDccVyLsrkxKZfiVJFygQg3qTK5gv6iFU
MuLZtsovEA==
-----END CERTIFICATE-----
