Certificate:
    Data:
        Version: 3 (0x2)
        Serial Number: 14962439509416331832 (0xcfa543759c07ca38)
    Signature Algorithm: sha1WithRSAEncryption
        Issuer: C=AU, ST=Some-State, O=Internet Widgits Pty Ltd, CN=test root
        Validity
            Not Before: Oct  7 08:39:22 2014 GMT
            Not After : Oct  4 08:39:22 2024 GMT
        Subject: C=AU, ST=Some-State, O=Internet Widgits Pty Ltd, CN=test root
        Subject Public Key Info:
            Public Key Algorithm: rsaEncryption
                Public-Key: (1024 bit)
                Modulus:
                    00:a8:05:9e:99:7d:0f:79:4f:f8:03:d9:11:89:c2:
                    e0:31:a9:99:aa:04:63:d3:6a:5c:1b:98:59:2e:bf:
                    4c:04:56:7e:6c:f9:e8:03:51:38:eb:35:76:43:e9:
                    a4:49:2c:5b:ec:ef:f9:29:b8:d6:e2:bb:9e:e1:3f:
                    79:1d:38:9d:74:3e:6b:10:ea:02:bf:f3:d2:a1:58:
                    6b:78:0e:0f:72:b1:4d:68:04:76:32:16:ef:59:38:
                    55:d7:ff:ff:6c:4e:a2:4b:0e:15:39:a0:00:9a:d5:
                    cf:93:f5:31:9b:cc:5c:3d:01:00:f7:cf:97:78:ee:
                    d6:a5:df:c3:ea:59:1b:93:b5
                Exponent: 65537 (0x10001)
        X509v3 extensions:
            X509v3 Subject Key Identifier: 
                EA:38:2C:12:62:53:49:BB:87:39:32:FC:29:86:3C:B9:A1:1B:D7:79
            X509v3 Authority Key Identifier: 
                keyid:EA:38:2C:12:62:53:49:BB:87:39:32:FC:29:86:3C:B9:A1:1B:D7:79

            X509v3 Basic Constraints: 
                CA:TRUE
    Signature Algorithm: sha1WithRSAEncryption
         38:db:11:90:24:0c:fc:ec:15:79:91:21:e9:6d:3e:a5:79:e3:
         bd:8f:03:60:d4:e3:9e:24:ed:56:6b:6a:50:5f:82:a3:8f:9b:
         b7:e0:69:65:69:f8:5e:73:bd:a4:92:5a:60:0d:76:52:26:41:
         f7:bb:e1:24:c7:83:cc:c2:03:20:4e:51:05:2d:cb:dd:8b:ed:
         bb:b1:2b:5f:21:8a:17:d4:85:a2:1e:92:37:88:88:6b:12:f6:
         75:a8:dc:b9:4c:93:d4:b9:d5:5d:ed:fc:89:a2:4d:dc:f3:d2:
         8a:86:93:1d:04:51:50:9d:f2:12:ba:cb:8a:ef:8a:c8:53:73:
         da:47
-----BEGIN CERTIFICATE-----
MIICgDCCAemgAwIBAgIJAM+lQ3WcB8o4MA0GCSqGSIb3DQEBBQUAMFkxCzAJBgNV
BAYTAkFVMRMwEQYDVQQIDApTb21lLVN0YXRlMSEwHwYDVQQKDBhJbnRlcm5ldCBX
aWRnaXRzIFB0eSBMdGQxEjAQBgNVBAMMCXRlc3Qgcm9vdDAeFw0xNDEwMDcwODM5
MjJaFw0yNDEwMDQwODM5MjJaMFkxCzAJBgNVBAYTAkFVMRMwEQYDVQQIDApTb21l
LVN0YXRlMSEwHwYDVQQKDBhJbnRlcm5ldCBXaWRnaXRzIFB0eSBMdGQxEjAQBgNV
BAMMCXRlc3Qgcm9vdDCBnzANBgkqhkiG9w0BAQEFAAOBjQAwgYkCgYEAqAWemX0P
eU/4A9kRicLgMamZqgRj02pcG5hZLr9MBFZ+bPnoA1E46zV2Q+mkSSxb7O/5KbjW
4rue4T95HTiddD5rEOoCv/PSoVhreA4PcrFNaAR2MhbvWThV1///bE6iSw4VOaAA
mtXPk/Uxm8xcPQEA98+XeO7Wpd/D6lkbk7UCAwEAAaNQME4wHQYDVR0OBBYEFOo4
LBJiU0m7hzky/CmGPLmhG9d5MB8GA1UdIwQYMBaAFOo4LBJiU0m7hzky/CmGPLmh
G9d5MAwGA1UdEwQFMAMBAf8wDQYJKoZIhvcNAQEFBQADgYEAONsRkCQM/OwVeZEh
6W0+pXnjvY8DYNTjniTtVmtqUF+Co4+bt+BpZWn4XnO9pJJaYA12UiZB97vhJMeD
zMIDIE5RBS3L3Yvtu7ErXyGKF9SFoh6SN4iIaxL2dajcuUyT1LnVXe38iaJN3PPS
ioaTHQRRUJ3yErrLiu+KyFNz2kc=
-----END CERTIFICATE-----
