Certificate:
    Data:
        Version: 3 (0x2)
        Serial Number: 15441482899666218084 (0xd64b2ae27fdfac64)
    Signature Algorithm: sha1WithRSAEncryption
        Issuer: C=AU, ST=Some-State, O=Internet Widgits Pty Ltd, CN=test CA
        Validity
            Not Before: Dec 15 20:42:32 2013 GMT
            Not After : Dec 15 20:42:32 2014 GMT
        Subject: C=AU, ST=Some-State, O=Internet Widgits Pty Ltd, CN=*
        Subject Public Key Info:
            Public Key Algorithm: rsaEncryption
                Public-Key: (1024 bit)
                Modulus:
                    00:df:4a:a7:c3:0b:23:3a:16:e3:aa:66:5d:f4:57:
                    54:f5:94:92:55:4e:38:f3:32:a9:1d:7a:cf:f4:35:
                    4e:25:28:7f:3a:3d:f1:c9:9f:99:f7:42:fc:8c:8c:
                    ac:f3:74:91:0e:80:5c:1e:8c:ff:26:94:1f:7e:2d:
                    d2:55:33:e9:69:e3:74:03:a0:78:43:45:25:5f:bb:
                    7d:59:e4:8c:46:ff:7a:4a:7f:51:89:71:f1:6b:07:
                    24:9b:0b:37:a5:53:c4:ed:57:05:cf:08:2c:64:43:
                    95:a3:93:6d:bd:98:f5:57:4b:7b:7a:c9:3f:47:a5:
                    7c:20:fa:91:55:58:df:24:2d
                Exponent: 65537 (0x10001)
        X509v3 extensions:
            X509v3 Basic Constraints: 
                CA:FALSE
            Netscape Comment: 
                OpenSSL Generated Certificate
            X509v3 Subject Key Identifier: 
                EA:FC:F9:50:A2:50:BB:33:DC:FC:15:17:CE:68:D2:3C:03:FD:5B:FF
            X509v3 Authority Key Identifier: 
                keyid:36:A1:4C:8C:07:84:35:8E:76:DF:22:90:AD:63:21:F5:4A:BD:34:E4

    Signature Algorithm: sha1WithRSAEncryption
         2c:69:84:c4:cd:0d:43:20:6c:7a:60:9d:9d:ed:9c:e0:22:10:
         8c:d1:9e:08:78:bd:ad:d5:03:9b:b2:4f:93:a1:6f:5b:38:47:
         ed:30:9a:2e:e8:ea:64:e7:6c:dd:df:fd:40:29:4d:0f:2e:e3:
         1f:5c:b8:ac:f4:37:28:05:22:35:70:3a:04:63:f8:88:d6:cb:
         33:f2:bc:05:b4:d8:4f:0d:eb:4c:e1:a6:55:69:3b:c3:90:7a:
         d5:ef:2b:0d:91:17:67:8e:08:79:bb:7d:50:f9:1f:36:91:c8:
         22:0d:d6:f9:f2:5e:c5:66:bf:27:bc:b2:32:4d:2a:cd:7c:a4:
         2a:ee
-----BEGIN CERTIFICATE-----
MIICoTCCAgqgAwIBAgIJANZLKuJ/36xkMA0GCSqGSIb3DQEBBQUAMFcxCzAJBgNV
BAYTAkFVMRMwEQYDVQQIDApTb21lLVN0YXRlMSEwHwYDVQQKDBhJbnRlcm5ldCBX
aWRnaXRzIFB0eSBMdGQxEDAOBgNVBAMMB3Rlc3QgQ0EwHhcNMTMxMjE1MjA0MjMy
WhcNMTQxMjE1MjA0MjMyWjBRMQswCQYDVQQGEwJBVTETMBEGA1UECAwKU29tZS1T
dGF0ZTEhMB8GA1UECgwYSW50ZXJuZXQgV2lkZ2l0cyBQdHkgTHRkMQowCAYDVQQD
DAEqMIGfMA0GCSqGSIb3DQEBAQUAA4GNADCBiQKBgQDfSqfDCyM6FuOqZl30V1T1
lJJVTjjzMqkdes/0NU4lKH86PfHJn5n3QvyMjKzzdJEOgFwejP8mlB9+LdJVM+lp
43QDoHhDRSVfu31Z5IxG/3pKf1GJcfFrBySbCzelU8TtVwXPCCxkQ5Wjk229mPVX
S3t6yT9HpXwg+pFVWN8kLQIDAQABo3sweTAJBgNVHRMEAjAAMCwGCWCGSAGG+EIB
DQQfFh1PcGVuU1NMIEdlbmVyYXRlZCBDZXJ0aWZpY2F0ZTAdBgNVHQ4EFgQU6vz5
UKJQuzPc/BUXzmjSPAP9W/8wHwYDVR0jBBgwFoAUNqFMjAeENY523yKQrWMh9Uq9
NOQwDQYJKoZIhvcNAQEFBQADgYEALGmExM0NQyBsemCdne2c4CIQjNGeCHi9rdUD
m7JPk6FvWzhH7TCaLujqZOds3d/9QClNDy7jH1y4rPQ3KAUiNXA6BGP4iNbLM/K8
BbTYTw3rTOGmVWk7w5B61e8rDZEXZ44Iebt9UPkfNpHIIg3W+fJexWa/J7yyMk0q
zXykKu4=
-----END CERTIFICATE-----
